Archive member included because of file (symbol)

C:\Users\20131\AppData\Local\Temp\VMBuilds\new_LMDZ\STM32_genericSTM32F103C\Debug\core.a(exc.S.o)
                              (__exc_nmi)
C:\Users\20131\AppData\Local\Temp\VMBuilds\new_LMDZ\STM32_genericSTM32F103C\Debug\core.a(isrs.S.o)
                              (__stm32reservedexception7)
C:\Users\20131\AppData\Local\Temp\VMBuilds\new_LMDZ\STM32_genericSTM32F103C\Debug\core.a(vector_table.S.o)
                              (__stm32_vector_table)
C:\Users\20131\AppData\Local\Temp\VMBuilds\new_LMDZ\STM32_genericSTM32F103C\Debug\core.a(adc.c.o)
                              C:\Users\20131\AppData\Local\Temp\VMBCore\arduino16x\7c3dd42e408ebb1ce4dae06851a5a8aa\variant\boards.cpp.o (adc_set_sample_rate)
C:\Users\20131\AppData\Local\Temp\VMBuilds\new_LMDZ\STM32_genericSTM32F103C\Debug\core.a(adc_f1.c.o)
                              (__irq_adc)
C:\Users\20131\AppData\Local\Temp\VMBuilds\new_LMDZ\STM32_genericSTM32F103C\Debug\core.a(dma_f1.c.o)
                              (__irq_dma1_channel1)
C:\Users\20131\AppData\Local\Temp\VMBuilds\new_LMDZ\STM32_genericSTM32F103C\Debug\core.a(exti.c.o)
                              (__irq_exti0)
C:\Users\20131\AppData\Local\Temp\VMBuilds\new_LMDZ\STM32_genericSTM32F103C\Debug\core.a(exti_f1.c.o)
                              C:\Users\20131\AppData\Local\Temp\VMBuilds\new_LMDZ\STM32_genericSTM32F103C\Debug\core.a(exti.c.o) (exti_select)
C:\Users\20131\AppData\Local\Temp\VMBuilds\new_LMDZ\STM32_genericSTM32F103C\Debug\core.a(flash.c.o)
                              C:\Users\20131\AppData\Local\Temp\VMBCore\arduino16x\7c3dd42e408ebb1ce4dae06851a5a8aa\variant\boards.cpp.o (flash_set_latency)
C:\Users\20131\AppData\Local\Temp\VMBuilds\new_LMDZ\STM32_genericSTM32F103C\Debug\core.a(gpio_f1.c.o)
                              C:\Users\20131\AppData\Local\Temp\VMBCore\arduino16x\7c3dd42e408ebb1ce4dae06851a5a8aa\variant\boards_setup.cpp.o (gpio_init_all)
C:\Users\20131\AppData\Local\Temp\VMBuilds\new_LMDZ\STM32_genericSTM32F103C\Debug\core.a(i2c_f1.c.o)
                              (__irq_i2c1_ev)
C:\Users\20131\AppData\Local\Temp\VMBuilds\new_LMDZ\STM32_genericSTM32F103C\Debug\core.a(nvic.c.o)
                              C:\Users\20131\AppData\Local\Temp\VMBuilds\new_LMDZ\STM32_genericSTM32F103C\Debug\core.a(i2c_f1.c.o) (nvic_irq_set_priority)
C:\Users\20131\AppData\Local\Temp\VMBuilds\new_LMDZ\STM32_genericSTM32F103C\Debug\core.a(rcc.c.o)
                              C:\Users\20131\AppData\Local\Temp\VMBCore\arduino16x\7c3dd42e408ebb1ce4dae06851a5a8aa\variant\boards.cpp.o (rcc_switch_sysclk)
C:\Users\20131\AppData\Local\Temp\VMBuilds\new_LMDZ\STM32_genericSTM32F103C\Debug\core.a(rcc_f1.c.o)
                              C:\Users\20131\AppData\Local\Temp\VMBCore\arduino16x\7c3dd42e408ebb1ce4dae06851a5a8aa\variant\boards.cpp.o (rcc_configure_pll)
C:\Users\20131\AppData\Local\Temp\VMBuilds\new_LMDZ\STM32_genericSTM32F103C\Debug\core.a(systick.c.o)
                              C:\Users\20131\AppData\Local\Temp\VMBCore\arduino16x\7c3dd42e408ebb1ce4dae06851a5a8aa\variant\boards.cpp.o (systick_init)
C:\Users\20131\AppData\Local\Temp\VMBuilds\new_LMDZ\STM32_genericSTM32F103C\Debug\core.a(timer.c.o)
                              C:\Users\20131\AppData\Local\Temp\VMBCore\arduino16x\7c3dd42e408ebb1ce4dae06851a5a8aa\variant\boards.cpp.o (timer_foreach)
C:\Users\20131\AppData\Local\Temp\VMBuilds\new_LMDZ\STM32_genericSTM32F103C\Debug\core.a(usart_f1.c.o)
                              (__irq_usart1)
C:\Users\20131\AppData\Local\Temp\VMBuilds\new_LMDZ\STM32_genericSTM32F103C\Debug\core.a(usart_private.c.o)
                              C:\Users\20131\AppData\Local\Temp\VMBuilds\new_LMDZ\STM32_genericSTM32F103C\Debug\core.a(usart_f1.c.o) (_usart_clock_freq)
C:\Users\20131\AppData\Local\Temp\VMBuilds\new_LMDZ\STM32_genericSTM32F103C\Debug\core.a(util.c.o)
                              C:\Users\20131\AppData\Local\Temp\VMBuilds\new_LMDZ\STM32_genericSTM32F103C\Debug\core.a(exc.S.o) (__error)
C:\Users\20131\AppData\Local\Temp\VMBuilds\new_LMDZ\STM32_genericSTM32F103C\Debug\core.a(usb.c.o)
                              (__irq_usb_lp_can_rx0)
C:\Users\20131\AppData\Local\Temp\VMBuilds\new_LMDZ\STM32_genericSTM32F103C\Debug\core.a(usb_cdcacm.c.o)
                              C:\Users\20131\AppData\Local\Temp\VMBuilds\new_LMDZ\STM32_genericSTM32F103C\Debug\core.a(usb.c.o) (User_Standard_Requests)
C:\Users\20131\AppData\Local\Temp\VMBuilds\new_LMDZ\STM32_genericSTM32F103C\Debug\core.a(usb_reg_map.c.o)
                              C:\Users\20131\AppData\Local\Temp\VMBuilds\new_LMDZ\STM32_genericSTM32F103C\Debug\core.a(usb_cdcacm.c.o) (usb_set_ep_rx_count)
C:\Users\20131\AppData\Local\Temp\VMBuilds\new_LMDZ\STM32_genericSTM32F103C\Debug\core.a(usb_core.c.o)
                              C:\Users\20131\AppData\Local\Temp\VMBuilds\new_LMDZ\STM32_genericSTM32F103C\Debug\core.a(usb_cdcacm.c.o) (Standard_GetDescriptorData)
C:\Users\20131\AppData\Local\Temp\VMBuilds\new_LMDZ\STM32_genericSTM32F103C\Debug\core.a(usb_init.c.o)
                              C:\Users\20131\AppData\Local\Temp\VMBuilds\new_LMDZ\STM32_genericSTM32F103C\Debug\core.a(usb.c.o) (pInformation)
C:\Users\20131\AppData\Local\Temp\VMBuilds\new_LMDZ\STM32_genericSTM32F103C\Debug\core.a(usb_mem.c.o)
                              C:\Users\20131\AppData\Local\Temp\VMBuilds\new_LMDZ\STM32_genericSTM32F103C\Debug\core.a(usb_core.c.o) (UserToPMABufferCopy)
C:\Users\20131\AppData\Local\Temp\VMBuilds\new_LMDZ\STM32_genericSTM32F103C\Debug\core.a(usb_regs.c.o)
                              C:\Users\20131\AppData\Local\Temp\VMBuilds\new_LMDZ\STM32_genericSTM32F103C\Debug\core.a(usb_core.c.o) (SetEPTxStatus)
C:\Users\20131\AppData\Local\Temp\VMBuilds\new_LMDZ\STM32_genericSTM32F103C\Debug\core.a(HardwareSerial.cpp.o)
                              C:\Users\20131\AppData\Local\Temp\VMBCore\arduino16x\7c3dd42e408ebb1ce4dae06851a5a8aa\variant\board.cpp.o (HardwareSerial::HardwareSerial(usart_dev*, unsigned char, unsigned char))
C:\Users\20131\AppData\Local\Temp\VMBuilds\new_LMDZ\STM32_genericSTM32F103C\Debug\core.a(main.cpp.o)
                              (main)
C:\Users\20131\AppData\Local\Temp\VMBuilds\new_LMDZ\STM32_genericSTM32F103C\Debug\core.a(Print.cpp.o)
                              C:\Users\20131\AppData\Local\Temp\VMBuilds\new_LMDZ\STM32_genericSTM32F103C\Debug\core.a(HardwareSerial.cpp.o) (Print::write(void const*, unsigned long))
C:\Users\20131\AppData\Local\Temp\VMBuilds\new_LMDZ\STM32_genericSTM32F103C\Debug\core.a(wirish_analog.cpp.o)
                              getValue.cpp.o (analogRead(unsigned char))
C:\Users\20131\AppData\Local\Temp\VMBuilds\new_LMDZ\STM32_genericSTM32F103C\Debug\core.a(wirish_time.cpp.o)
                              getValue.cpp.o (delay(unsigned long))
C:\Users\20131\AppData\Local\Temp\VMBuilds\new_LMDZ\STM32_genericSTM32F103C\Debug\core.a(wirish_digital_f1.cpp.o)
                              new_LMDZ.cpp.o (pinMode(unsigned char, WiringPinMode))
C:\Users\20131\AppData\Local\Temp\VMBuilds\new_LMDZ\STM32_genericSTM32F103C\Debug\core.a(hooks.c.o)
                              C:\Users\20131\AppData\Local\Temp\VMBuilds\new_LMDZ\STM32_genericSTM32F103C\Debug\core.a(wirish_time.cpp.o) (yield)
C:\Users\20131\AppData\Local\Temp\VMBuilds\new_LMDZ\STM32_genericSTM32F103C\Debug\core.a(dma.c.o)
                              C:\Users\20131\AppData\Local\Temp\VMBuilds\new_LMDZ\STM32_genericSTM32F103C\Debug\core.a(dma_f1.c.o) (_dma_addr_type)
C:\Users\20131\AppData\Local\Temp\VMBuilds\new_LMDZ\STM32_genericSTM32F103C\Debug\core.a(gpio.c.o)
                              C:\Users\20131\AppData\Local\Temp\VMBuilds\new_LMDZ\STM32_genericSTM32F103C\Debug\core.a(gpio_f1.c.o) (gpio_init)
C:\Users\20131\AppData\Local\Temp\VMBuilds\new_LMDZ\STM32_genericSTM32F103C\Debug\core.a(i2c.c.o)
                              C:\Users\20131\AppData\Local\Temp\VMBuilds\new_LMDZ\STM32_genericSTM32F103C\Debug\core.a(i2c_f1.c.o) (_i2c_irq_handler)
C:\Users\20131\AppData\Local\Temp\VMBuilds\new_LMDZ\STM32_genericSTM32F103C\Debug\core.a(usart.c.o)
                              C:\Users\20131\AppData\Local\Temp\VMBuilds\new_LMDZ\STM32_genericSTM32F103C\Debug\core.a(HardwareSerial.cpp.o) (usart_init)
C:\Users\20131\AppData\Local\Temp\VMBuilds\new_LMDZ\STM32_genericSTM32F103C\Debug\core.a(cxxabi-compat.cpp.o)
                              C:\Users\20131\AppData\Local\Temp\VMBuilds\new_LMDZ\STM32_genericSTM32F103C\Debug\core.a(HardwareSerial.cpp.o) (__cxa_pure_virtual)
c:/users/20131/appdata/local/arduino15/packages/arduino/tools/arm-none-eabi-gcc/4.8.3-2014q1/bin/../lib/gcc/arm-none-eabi/4.8.3/armv7-m\libgcc.a(_arm_addsubdf3.o)
                              quartileDeviation.cpp.o (__aeabi_dsub)
c:/users/20131/appdata/local/arduino15/packages/arduino/tools/arm-none-eabi-gcc/4.8.3-2014q1/bin/../lib/gcc/arm-none-eabi/4.8.3/armv7-m\libgcc.a(_arm_muldivdf3.o)
                              quartileDeviation.cpp.o (__aeabi_dmul)
c:/users/20131/appdata/local/arduino15/packages/arduino/tools/arm-none-eabi-gcc/4.8.3-2014q1/bin/../lib/gcc/arm-none-eabi/4.8.3/armv7-m\libgcc.a(_arm_cmpdf2.o)
                              C:\Users\20131\AppData\Local\Temp\VMBuilds\new_LMDZ\STM32_genericSTM32F103C\Debug\core.a(Print.cpp.o) (__aeabi_dcmplt)
c:/users/20131/appdata/local/arduino15/packages/arduino/tools/arm-none-eabi-gcc/4.8.3-2014q1/bin/../lib/gcc/arm-none-eabi/4.8.3/armv7-m\libgcc.a(_arm_fixdfsi.o)
                              C:\Users\20131\AppData\Local\Temp\VMBuilds\new_LMDZ\STM32_genericSTM32F103C\Debug\core.a(Print.cpp.o) (__aeabi_d2iz)
c:/users/20131/appdata/local/arduino15/packages/arduino/tools/arm-none-eabi-gcc/4.8.3-2014q1/bin/../lib/gcc/arm-none-eabi/4.8.3/armv7-m\libgcc.a(_aeabi_uldivmod.o)
                              C:\Users\20131\AppData\Local\Temp\VMBuilds\new_LMDZ\STM32_genericSTM32F103C\Debug\core.a(Print.cpp.o) (__aeabi_uldivmod)
c:/users/20131/appdata/local/arduino15/packages/arduino/tools/arm-none-eabi-gcc/4.8.3-2014q1/bin/../lib/gcc/arm-none-eabi/4.8.3/armv7-m\libgcc.a(_fixdfdi.o)
                              C:\Users\20131\AppData\Local\Temp\VMBuilds\new_LMDZ\STM32_genericSTM32F103C\Debug\core.a(Print.cpp.o) (__aeabi_d2lz)
c:/users/20131/appdata/local/arduino15/packages/arduino/tools/arm-none-eabi-gcc/4.8.3-2014q1/bin/../lib/gcc/arm-none-eabi/4.8.3/armv7-m\libgcc.a(_fixunsdfdi.o)
                              c:/users/20131/appdata/local/arduino15/packages/arduino/tools/arm-none-eabi-gcc/4.8.3-2014q1/bin/../lib/gcc/arm-none-eabi/4.8.3/armv7-m\libgcc.a(_fixdfdi.o) (__aeabi_d2ulz)
c:/users/20131/appdata/local/arduino15/packages/arduino/tools/arm-none-eabi-gcc/4.8.3-2014q1/bin/../lib/gcc/arm-none-eabi/4.8.3/armv7-m\libgcc.a(bpabi.o)
                              c:/users/20131/appdata/local/arduino15/packages/arduino/tools/arm-none-eabi-gcc/4.8.3-2014q1/bin/../lib/gcc/arm-none-eabi/4.8.3/armv7-m\libgcc.a(_aeabi_uldivmod.o) (__gnu_uldivmod_helper)
c:/users/20131/appdata/local/arduino15/packages/arduino/tools/arm-none-eabi-gcc/4.8.3-2014q1/bin/../lib/gcc/arm-none-eabi/4.8.3/armv7-m\libgcc.a(_dvmd_tls.o)
                              c:/users/20131/appdata/local/arduino15/packages/arduino/tools/arm-none-eabi-gcc/4.8.3-2014q1/bin/../lib/gcc/arm-none-eabi/4.8.3/armv7-m\libgcc.a(_aeabi_uldivmod.o) (__aeabi_ldiv0)
c:/users/20131/appdata/local/arduino15/packages/arduino/tools/arm-none-eabi-gcc/4.8.3-2014q1/bin/../lib/gcc/arm-none-eabi/4.8.3/armv7-m\libgcc.a(_arm_fixunsdfsi.o)
                              c:/users/20131/appdata/local/arduino15/packages/arduino/tools/arm-none-eabi-gcc/4.8.3-2014q1/bin/../lib/gcc/arm-none-eabi/4.8.3/armv7-m\libgcc.a(_fixunsdfdi.o) (__aeabi_d2uiz)
c:/users/20131/appdata/local/arduino15/packages/arduino/tools/arm-none-eabi-gcc/4.8.3-2014q1/bin/../lib/gcc/arm-none-eabi/4.8.3/armv7-m\libgcc.a(_divdi3.o)
                              c:/users/20131/appdata/local/arduino15/packages/arduino/tools/arm-none-eabi-gcc/4.8.3-2014q1/bin/../lib/gcc/arm-none-eabi/4.8.3/armv7-m\libgcc.a(bpabi.o) (__divdi3)
c:/users/20131/appdata/local/arduino15/packages/arduino/tools/arm-none-eabi-gcc/4.8.3-2014q1/bin/../lib/gcc/arm-none-eabi/4.8.3/armv7-m\libgcc.a(_udivdi3.o)
                              c:/users/20131/appdata/local/arduino15/packages/arduino/tools/arm-none-eabi-gcc/4.8.3-2014q1/bin/../lib/gcc/arm-none-eabi/4.8.3/armv7-m\libgcc.a(bpabi.o) (__udivdi3)
c:/users/20131/appdata/local/arduino15/packages/arduino/tools/arm-none-eabi-gcc/4.8.3-2014q1/bin/../lib/gcc/arm-none-eabi/4.8.3/../../../../arm-none-eabi/lib/armv7-m\libc.a(lib_a-errno.o)
                              C:\Users\20131\AppData\Local\Temp\VMBCore\arduino16x\7c3dd42e408ebb1ce4dae06851a5a8aa\variant\syscalls.c.o (__errno)
c:/users/20131/appdata/local/arduino15/packages/arduino/tools/arm-none-eabi-gcc/4.8.3-2014q1/bin/../lib/gcc/arm-none-eabi/4.8.3/../../../../arm-none-eabi/lib/armv7-m\libc.a(lib_a-exit.o)
                              c:/users/20131/appdata/local/arduino15/packages/arduino/tools/arm-none-eabi-gcc/4.8.3-2014q1/bin/../lib/gcc/arm-none-eabi/4.8.3/../../../../arm-none-eabi/lib/armv7-m/crt0.o (exit)
c:/users/20131/appdata/local/arduino15/packages/arduino/tools/arm-none-eabi-gcc/4.8.3-2014q1/bin/../lib/gcc/arm-none-eabi/4.8.3/../../../../arm-none-eabi/lib/armv7-m\libc.a(lib_a-impure.o)
                              c:/users/20131/appdata/local/arduino15/packages/arduino/tools/arm-none-eabi-gcc/4.8.3-2014q1/bin/../lib/gcc/arm-none-eabi/4.8.3/../../../../arm-none-eabi/lib/armv7-m\libc.a(lib_a-exit.o) (_global_impure_ptr)
c:/users/20131/appdata/local/arduino15/packages/arduino/tools/arm-none-eabi-gcc/4.8.3-2014q1/bin/../lib/gcc/arm-none-eabi/4.8.3/../../../../arm-none-eabi/lib/armv7-m\libc.a(lib_a-init.o)
                              c:/users/20131/appdata/local/arduino15/packages/arduino/tools/arm-none-eabi-gcc/4.8.3-2014q1/bin/../lib/gcc/arm-none-eabi/4.8.3/../../../../arm-none-eabi/lib/armv7-m/crt0.o (__libc_init_array)
c:/users/20131/appdata/local/arduino15/packages/arduino/tools/arm-none-eabi-gcc/4.8.3-2014q1/bin/../lib/gcc/arm-none-eabi/4.8.3/../../../../arm-none-eabi/lib/armv7-m\libc.a(lib_a-memset.o)
                              c:/users/20131/appdata/local/arduino15/packages/arduino/tools/arm-none-eabi-gcc/4.8.3-2014q1/bin/../lib/gcc/arm-none-eabi/4.8.3/../../../../arm-none-eabi/lib/armv7-m/crt0.o (memset)
c:/users/20131/appdata/local/arduino15/packages/arduino/tools/arm-none-eabi-gcc/4.8.3-2014q1/bin/../lib/gcc/arm-none-eabi/4.8.3/../../../../arm-none-eabi/lib/armv7-m\libc.a(lib_a-strlen.o)
                              C:\Users\20131\AppData\Local\Temp\VMBuilds\new_LMDZ\STM32_genericSTM32F103C\Debug\core.a(Print.cpp.o) (strlen)
c:/users/20131/appdata/local/arduino15/packages/arduino/tools/arm-none-eabi-gcc/4.8.3-2014q1/bin/../lib/gcc/arm-none-eabi/4.8.3/../../../../arm-none-eabi/lib/armv7-m\libc.a(lib_a-__call_atexit.o)
                              c:/users/20131/appdata/local/arduino15/packages/arduino/tools/arm-none-eabi-gcc/4.8.3-2014q1/bin/../lib/gcc/arm-none-eabi/4.8.3/../../../../arm-none-eabi/lib/armv7-m\libc.a(lib_a-exit.o) (__call_exitprocs)
c:/users/20131/appdata/local/arduino15/packages/arduino/tools/arm-none-eabi-gcc/4.8.3-2014q1/bin/../lib/gcc/arm-none-eabi/4.8.3/../../../../arm-none-eabi/lib/armv7-m\libc.a(lib_a-atexit.o)
                              c:/users/20131/appdata/local/arduino15/packages/arduino/tools/arm-none-eabi-gcc/4.8.3-2014q1/bin/../lib/gcc/arm-none-eabi/4.8.3/../../../../arm-none-eabi/lib/armv7-m\libc.a(lib_a-__call_atexit.o) (atexit)
c:/users/20131/appdata/local/arduino15/packages/arduino/tools/arm-none-eabi-gcc/4.8.3-2014q1/bin/../lib/gcc/arm-none-eabi/4.8.3/../../../../arm-none-eabi/lib/armv7-m\libc.a(lib_a-fini.o)
                              c:/users/20131/appdata/local/arduino15/packages/arduino/tools/arm-none-eabi-gcc/4.8.3-2014q1/bin/../lib/gcc/arm-none-eabi/4.8.3/../../../../arm-none-eabi/lib/armv7-m\libc.a(lib_a-__call_atexit.o) (__libc_fini_array)
c:/users/20131/appdata/local/arduino15/packages/arduino/tools/arm-none-eabi-gcc/4.8.3-2014q1/bin/../lib/gcc/arm-none-eabi/4.8.3/../../../../arm-none-eabi/lib/armv7-m\libc.a(lib_a-__atexit.o)
                              c:/users/20131/appdata/local/arduino15/packages/arduino/tools/arm-none-eabi-gcc/4.8.3-2014q1/bin/../lib/gcc/arm-none-eabi/4.8.3/../../../../arm-none-eabi/lib/armv7-m\libc.a(lib_a-atexit.o) (__register_exitproc)

Allocating common symbols
Common symbol       size              file

SaveRState          0x2               C:\Users\20131\AppData\Local\Temp\VMBuilds\new_LMDZ\STM32_genericSTM32F103C\Debug\core.a(usb.c.o)
SaveState           0x2               C:\Users\20131\AppData\Local\Temp\VMBuilds\new_LMDZ\STM32_genericSTM32F103C\Debug\core.a(usb_init.c.o)
pProperty           0x4               C:\Users\20131\AppData\Local\Temp\VMBuilds\new_LMDZ\STM32_genericSTM32F103C\Debug\core.a(usb_init.c.o)
EPindex             0x1               C:\Users\20131\AppData\Local\Temp\VMBuilds\new_LMDZ\STM32_genericSTM32F103C\Debug\core.a(usb_init.c.o)
SaveTState          0x2               C:\Users\20131\AppData\Local\Temp\VMBuilds\new_LMDZ\STM32_genericSTM32F103C\Debug\core.a(usb.c.o)
systick_uptime_millis
                    0x4               C:\Users\20131\AppData\Local\Temp\VMBuilds\new_LMDZ\STM32_genericSTM32F103C\Debug\core.a(systick.c.o)
Device_Info         0x1c              C:\Users\20131\AppData\Local\Temp\VMBuilds\new_LMDZ\STM32_genericSTM32F103C\Debug\core.a(usb_init.c.o)
pUser_Standard_Requests
                    0x4               C:\Users\20131\AppData\Local\Temp\VMBuilds\new_LMDZ\STM32_genericSTM32F103C\Debug\core.a(usb_init.c.o)
StatusInfo          0x2               C:\Users\20131\AppData\Local\Temp\VMBuilds\new_LMDZ\STM32_genericSTM32F103C\Debug\core.a(usb_core.c.o)
pInformation        0x4               C:\Users\20131\AppData\Local\Temp\VMBuilds\new_LMDZ\STM32_genericSTM32F103C\Debug\core.a(usb_init.c.o)
ResumeS             0x2               C:\Users\20131\AppData\Local\Temp\VMBuilds\new_LMDZ\STM32_genericSTM32F103C\Debug\core.a(usb.c.o)
wInterrupt_Mask     0x2               C:\Users\20131\AppData\Local\Temp\VMBuilds\new_LMDZ\STM32_genericSTM32F103C\Debug\core.a(usb_init.c.o)

Discarded input sections

 .text          0x00000000        0x0 c:/users/20131/appdata/local/arduino15/packages/arduino/tools/arm-none-eabi-gcc/4.8.3-2014q1/bin/../lib/gcc/arm-none-eabi/4.8.3/armv7-m/crti.o
 .data          0x00000000        0x0 c:/users/20131/appdata/local/arduino15/packages/arduino/tools/arm-none-eabi-gcc/4.8.3-2014q1/bin/../lib/gcc/arm-none-eabi/4.8.3/armv7-m/crti.o
 .bss           0x00000000        0x0 c:/users/20131/appdata/local/arduino15/packages/arduino/tools/arm-none-eabi-gcc/4.8.3-2014q1/bin/../lib/gcc/arm-none-eabi/4.8.3/armv7-m/crti.o
 .data          0x00000000        0x4 c:/users/20131/appdata/local/arduino15/packages/arduino/tools/arm-none-eabi-gcc/4.8.3-2014q1/bin/../lib/gcc/arm-none-eabi/4.8.3/armv7-m/crtbegin.o
 .text          0x00000000       0x74 c:/users/20131/appdata/local/arduino15/packages/arduino/tools/arm-none-eabi-gcc/4.8.3-2014q1/bin/../lib/gcc/arm-none-eabi/4.8.3/../../../../arm-none-eabi/lib/armv7-m/crt0.o
 .data          0x00000000        0x0 c:/users/20131/appdata/local/arduino15/packages/arduino/tools/arm-none-eabi-gcc/4.8.3-2014q1/bin/../lib/gcc/arm-none-eabi/4.8.3/../../../../arm-none-eabi/lib/armv7-m/crt0.o
 .bss           0x00000000        0x0 c:/users/20131/appdata/local/arduino15/packages/arduino/tools/arm-none-eabi-gcc/4.8.3-2014q1/bin/../lib/gcc/arm-none-eabi/4.8.3/../../../../arm-none-eabi/lib/armv7-m/crt0.o
 .ARM.extab     0x00000000        0x0 c:/users/20131/appdata/local/arduino15/packages/arduino/tools/arm-none-eabi-gcc/4.8.3-2014q1/bin/../lib/gcc/arm-none-eabi/4.8.3/../../../../arm-none-eabi/lib/armv7-m/crt0.o
 .ARM.exidx     0x00000000        0x8 c:/users/20131/appdata/local/arduino15/packages/arduino/tools/arm-none-eabi-gcc/4.8.3-2014q1/bin/../lib/gcc/arm-none-eabi/4.8.3/../../../../arm-none-eabi/lib/armv7-m/crt0.o
 .text          0x00000000        0x0 new_LMDZ.cpp.o
 .data          0x00000000        0x0 new_LMDZ.cpp.o
 .bss           0x00000000        0x0 new_LMDZ.cpp.o
 .data.sensor2  0x00000000      0x350 new_LMDZ.cpp.o
 .bss.A         0x00000000       0x20 new_LMDZ.cpp.o
 .text          0x00000000        0x0 aveRage.cpp.o
 .data          0x00000000        0x0 aveRage.cpp.o
 .bss           0x00000000        0x0 aveRage.cpp.o
 .text          0x00000000        0x0 cmpValues.cpp.o
 .data          0x00000000        0x0 cmpValues.cpp.o
 .bss           0x00000000        0x0 cmpValues.cpp.o
 .text._Z3cmpP6sensor
                0x00000000       0x38 cmpValues.cpp.o
 .text._Z9cmpValuesP6sensorS0_Pi
                0x00000000       0x18 cmpValues.cpp.o
 .text          0x00000000        0x0 draw.cpp.o
 .data          0x00000000        0x0 draw.cpp.o
 .bss           0x00000000        0x0 draw.cpp.o
 .text._Z4stepPii
                0x00000000       0x38 draw.cpp.o
 .text._Z4drawPi
                0x00000000       0x16 draw.cpp.o
 .rodata.str1.1
                0x00000000        0x2 draw.cpp.o
 .text          0x00000000        0x0 getValue.cpp.o
 .data          0x00000000        0x0 getValue.cpp.o
 .bss           0x00000000        0x0 getValue.cpp.o
 .text          0x00000000        0x0 quartileDeviation.cpp.o
 .data          0x00000000        0x0 quartileDeviation.cpp.o
 .bss           0x00000000        0x0 quartileDeviation.cpp.o
 .text          0x00000000        0x0 rearrange.cpp.o
 .data          0x00000000        0x0 rearrange.cpp.o
 .bss           0x00000000        0x0 rearrange.cpp.o
 .text          0x00000000        0x0 valuesPrint.cpp.o
 .data          0x00000000        0x0 valuesPrint.cpp.o
 .bss           0x00000000        0x0 valuesPrint.cpp.o
 .text          0x00000000        0x0 C:\Users\20131\AppData\Local\Temp\VMBCore\arduino16x\7c3dd42e408ebb1ce4dae06851a5a8aa\variant\board.cpp.o
 .data          0x00000000        0x0 C:\Users\20131\AppData\Local\Temp\VMBCore\arduino16x\7c3dd42e408ebb1ce4dae06851a5a8aa\variant\board.cpp.o
 .bss           0x00000000        0x0 C:\Users\20131\AppData\Local\Temp\VMBCore\arduino16x\7c3dd42e408ebb1ce4dae06851a5a8aa\variant\board.cpp.o
 .USER_FLASH    0x00000000       0x19 C:\Users\20131\AppData\Local\Temp\VMBCore\arduino16x\7c3dd42e408ebb1ce4dae06851a5a8aa\variant\board.cpp.o
 .text          0x00000000        0x0 C:\Users\20131\AppData\Local\Temp\VMBCore\arduino16x\7c3dd42e408ebb1ce4dae06851a5a8aa\variant\boards.cpp.o
 .data          0x00000000        0x0 C:\Users\20131\AppData\Local\Temp\VMBCore\arduino16x\7c3dd42e408ebb1ce4dae06851a5a8aa\variant\boards.cpp.o
 .bss           0x00000000        0x0 C:\Users\20131\AppData\Local\Temp\VMBCore\arduino16x\7c3dd42e408ebb1ce4dae06851a5a8aa\variant\boards.cpp.o
 .text._Z9boardInitv
                0x00000000        0x2 C:\Users\20131\AppData\Local\Temp\VMBCore\arduino16x\7c3dd42e408ebb1ce4dae06851a5a8aa\variant\boards.cpp.o
 .text._Z12boardUsesPinh
                0x00000000       0x1c C:\Users\20131\AppData\Local\Temp\VMBCore\arduino16x\7c3dd42e408ebb1ce4dae06851a5a8aa\variant\boards.cpp.o
 .text          0x00000000        0x0 C:\Users\20131\AppData\Local\Temp\VMBCore\arduino16x\7c3dd42e408ebb1ce4dae06851a5a8aa\variant\boards_setup.cpp.o
 .data          0x00000000        0x0 C:\Users\20131\AppData\Local\Temp\VMBCore\arduino16x\7c3dd42e408ebb1ce4dae06851a5a8aa\variant\boards_setup.cpp.o
 .bss           0x00000000        0x0 C:\Users\20131\AppData\Local\Temp\VMBCore\arduino16x\7c3dd42e408ebb1ce4dae06851a5a8aa\variant\boards_setup.cpp.o
 .data          0x00000000        0x0 C:\Users\20131\AppData\Local\Temp\VMBCore\arduino16x\7c3dd42e408ebb1ce4dae06851a5a8aa\variant\start.S.o
 .bss           0x00000000        0x0 C:\Users\20131\AppData\Local\Temp\VMBCore\arduino16x\7c3dd42e408ebb1ce4dae06851a5a8aa\variant\start.S.o
 .ARM.extab     0x00000000        0x0 C:\Users\20131\AppData\Local\Temp\VMBCore\arduino16x\7c3dd42e408ebb1ce4dae06851a5a8aa\variant\start.S.o
 .text          0x00000000        0x0 C:\Users\20131\AppData\Local\Temp\VMBCore\arduino16x\7c3dd42e408ebb1ce4dae06851a5a8aa\variant\start_c.c.o
 .data          0x00000000        0x0 C:\Users\20131\AppData\Local\Temp\VMBCore\arduino16x\7c3dd42e408ebb1ce4dae06851a5a8aa\variant\start_c.c.o
 .bss           0x00000000        0x0 C:\Users\20131\AppData\Local\Temp\VMBCore\arduino16x\7c3dd42e408ebb1ce4dae06851a5a8aa\variant\start_c.c.o
 .text          0x00000000        0x0 C:\Users\20131\AppData\Local\Temp\VMBCore\arduino16x\7c3dd42e408ebb1ce4dae06851a5a8aa\variant\syscalls.c.o
 .data          0x00000000        0x0 C:\Users\20131\AppData\Local\Temp\VMBCore\arduino16x\7c3dd42e408ebb1ce4dae06851a5a8aa\variant\syscalls.c.o
 .bss           0x00000000        0x0 C:\Users\20131\AppData\Local\Temp\VMBCore\arduino16x\7c3dd42e408ebb1ce4dae06851a5a8aa\variant\syscalls.c.o
 .text._sbrk    0x00000000       0x44 C:\Users\20131\AppData\Local\Temp\VMBCore\arduino16x\7c3dd42e408ebb1ce4dae06851a5a8aa\variant\syscalls.c.o
 .text._open    0x00000000        0x8 C:\Users\20131\AppData\Local\Temp\VMBCore\arduino16x\7c3dd42e408ebb1ce4dae06851a5a8aa\variant\syscalls.c.o
 .text._close   0x00000000        0x4 C:\Users\20131\AppData\Local\Temp\VMBCore\arduino16x\7c3dd42e408ebb1ce4dae06851a5a8aa\variant\syscalls.c.o
 .text._fstat   0x00000000        0xa C:\Users\20131\AppData\Local\Temp\VMBCore\arduino16x\7c3dd42e408ebb1ce4dae06851a5a8aa\variant\syscalls.c.o
 .text._isatty  0x00000000        0x4 C:\Users\20131\AppData\Local\Temp\VMBCore\arduino16x\7c3dd42e408ebb1ce4dae06851a5a8aa\variant\syscalls.c.o
 .text.isatty   0x00000000        0x4 C:\Users\20131\AppData\Local\Temp\VMBCore\arduino16x\7c3dd42e408ebb1ce4dae06851a5a8aa\variant\syscalls.c.o
 .text._lseek   0x00000000        0x6 C:\Users\20131\AppData\Local\Temp\VMBCore\arduino16x\7c3dd42e408ebb1ce4dae06851a5a8aa\variant\syscalls.c.o
 .text.getch    0x00000000        0x4 C:\Users\20131\AppData\Local\Temp\VMBCore\arduino16x\7c3dd42e408ebb1ce4dae06851a5a8aa\variant\syscalls.c.o
 .text._read    0x00000000        0xe C:\Users\20131\AppData\Local\Temp\VMBCore\arduino16x\7c3dd42e408ebb1ce4dae06851a5a8aa\variant\syscalls.c.o
 .text.putch    0x00000000        0x2 C:\Users\20131\AppData\Local\Temp\VMBCore\arduino16x\7c3dd42e408ebb1ce4dae06851a5a8aa\variant\syscalls.c.o
 .text.cgets    0x00000000       0x78 C:\Users\20131\AppData\Local\Temp\VMBCore\arduino16x\7c3dd42e408ebb1ce4dae06851a5a8aa\variant\syscalls.c.o
 .text._write   0x00000000       0x1a C:\Users\20131\AppData\Local\Temp\VMBCore\arduino16x\7c3dd42e408ebb1ce4dae06851a5a8aa\variant\syscalls.c.o
 .text.fgets    0x00000000        0xc C:\Users\20131\AppData\Local\Temp\VMBCore\arduino16x\7c3dd42e408ebb1ce4dae06851a5a8aa\variant\syscalls.c.o
 .bss.pbreak.4444
                0x00000000        0x4 C:\Users\20131\AppData\Local\Temp\VMBCore\arduino16x\7c3dd42e408ebb1ce4dae06851a5a8aa\variant\syscalls.c.o
 .data          0x00000000        0x0 C:\Users\20131\AppData\Local\Temp\VMBuilds\new_LMDZ\STM32_genericSTM32F103C\Debug\core.a(exc.S.o)
 .bss           0x00000000        0x0 C:\Users\20131\AppData\Local\Temp\VMBuilds\new_LMDZ\STM32_genericSTM32F103C\Debug\core.a(exc.S.o)
 .data          0x00000000        0x0 C:\Users\20131\AppData\Local\Temp\VMBuilds\new_LMDZ\STM32_genericSTM32F103C\Debug\core.a(isrs.S.o)
 .bss           0x00000000        0x0 C:\Users\20131\AppData\Local\Temp\VMBuilds\new_LMDZ\STM32_genericSTM32F103C\Debug\core.a(isrs.S.o)
 .text          0x00000000        0x0 C:\Users\20131\AppData\Local\Temp\VMBuilds\new_LMDZ\STM32_genericSTM32F103C\Debug\core.a(vector_table.S.o)
 .data          0x00000000        0x0 C:\Users\20131\AppData\Local\Temp\VMBuilds\new_LMDZ\STM32_genericSTM32F103C\Debug\core.a(vector_table.S.o)
 .bss           0x00000000        0x0 C:\Users\20131\AppData\Local\Temp\VMBuilds\new_LMDZ\STM32_genericSTM32F103C\Debug\core.a(vector_table.S.o)
 .text          0x00000000        0x0 C:\Users\20131\AppData\Local\Temp\VMBuilds\new_LMDZ\STM32_genericSTM32F103C\Debug\core.a(adc.c.o)
 .data          0x00000000        0x0 C:\Users\20131\AppData\Local\Temp\VMBuilds\new_LMDZ\STM32_genericSTM32F103C\Debug\core.a(adc.c.o)
 .bss           0x00000000        0x0 C:\Users\20131\AppData\Local\Temp\VMBuilds\new_LMDZ\STM32_genericSTM32F103C\Debug\core.a(adc.c.o)
 .text          0x00000000        0x0 C:\Users\20131\AppData\Local\Temp\VMBuilds\new_LMDZ\STM32_genericSTM32F103C\Debug\core.a(adc_f1.c.o)
 .data          0x00000000        0x0 C:\Users\20131\AppData\Local\Temp\VMBuilds\new_LMDZ\STM32_genericSTM32F103C\Debug\core.a(adc_f1.c.o)
 .bss           0x00000000        0x0 C:\Users\20131\AppData\Local\Temp\VMBuilds\new_LMDZ\STM32_genericSTM32F103C\Debug\core.a(adc_f1.c.o)
 .text.adc_enable_irq
                0x00000000       0x30 C:\Users\20131\AppData\Local\Temp\VMBuilds\new_LMDZ\STM32_genericSTM32F103C\Debug\core.a(adc_f1.c.o)
 .text.adc_attach_interrupt
                0x00000000        0xa C:\Users\20131\AppData\Local\Temp\VMBuilds\new_LMDZ\STM32_genericSTM32F103C\Debug\core.a(adc_f1.c.o)
 .text.adc_config_gpio
                0x00000000        0xa C:\Users\20131\AppData\Local\Temp\VMBuilds\new_LMDZ\STM32_genericSTM32F103C\Debug\core.a(adc_f1.c.o)
 .text          0x00000000        0x0 C:\Users\20131\AppData\Local\Temp\VMBuilds\new_LMDZ\STM32_genericSTM32F103C\Debug\core.a(dma_f1.c.o)
 .data          0x00000000        0x0 C:\Users\20131\AppData\Local\Temp\VMBuilds\new_LMDZ\STM32_genericSTM32F103C\Debug\core.a(dma_f1.c.o)
 .bss           0x00000000        0x0 C:\Users\20131\AppData\Local\Temp\VMBuilds\new_LMDZ\STM32_genericSTM32F103C\Debug\core.a(dma_f1.c.o)
 .text.dma_set_priority
                0x00000000       0x3c C:\Users\20131\AppData\Local\Temp\VMBuilds\new_LMDZ\STM32_genericSTM32F103C\Debug\core.a(dma_f1.c.o)
 .text.dma_set_num_transfers
                0x00000000       0x34 C:\Users\20131\AppData\Local\Temp\VMBuilds\new_LMDZ\STM32_genericSTM32F103C\Debug\core.a(dma_f1.c.o)
 .text.dma_attach_interrupt
                0x00000000       0x28 C:\Users\20131\AppData\Local\Temp\VMBuilds\new_LMDZ\STM32_genericSTM32F103C\Debug\core.a(dma_f1.c.o)
 .text.dma_detach_interrupt
                0x00000000       0x1c C:\Users\20131\AppData\Local\Temp\VMBuilds\new_LMDZ\STM32_genericSTM32F103C\Debug\core.a(dma_f1.c.o)
 .text.dma_enable
                0x00000000       0x18 C:\Users\20131\AppData\Local\Temp\VMBuilds\new_LMDZ\STM32_genericSTM32F103C\Debug\core.a(dma_f1.c.o)
 .text.dma_disable
                0x00000000       0x18 C:\Users\20131\AppData\Local\Temp\VMBuilds\new_LMDZ\STM32_genericSTM32F103C\Debug\core.a(dma_f1.c.o)
 .text.dma_tube_cfg
                0x00000000      0x15c C:\Users\20131\AppData\Local\Temp\VMBuilds\new_LMDZ\STM32_genericSTM32F103C\Debug\core.a(dma_f1.c.o)
 .text.dma_get_irq_cause
                0x00000000       0x3c C:\Users\20131\AppData\Local\Temp\VMBuilds\new_LMDZ\STM32_genericSTM32F103C\Debug\core.a(dma_f1.c.o)
 .text.dma_set_mem_addr
                0x00000000       0x34 C:\Users\20131\AppData\Local\Temp\VMBuilds\new_LMDZ\STM32_genericSTM32F103C\Debug\core.a(dma_f1.c.o)
 .text.dma_set_per_addr
                0x00000000       0x34 C:\Users\20131\AppData\Local\Temp\VMBuilds\new_LMDZ\STM32_genericSTM32F103C\Debug\core.a(dma_f1.c.o)
 .text.dma_setup_transfer
                0x00000000       0x36 C:\Users\20131\AppData\Local\Temp\VMBuilds\new_LMDZ\STM32_genericSTM32F103C\Debug\core.a(dma_f1.c.o)
 .rodata.str1.1
                0x00000000       0x7a C:\Users\20131\AppData\Local\Temp\VMBuilds\new_LMDZ\STM32_genericSTM32F103C\Debug\core.a(dma_f1.c.o)
 .text          0x00000000        0x0 C:\Users\20131\AppData\Local\Temp\VMBuilds\new_LMDZ\STM32_genericSTM32F103C\Debug\core.a(exti.c.o)
 .data          0x00000000        0x0 C:\Users\20131\AppData\Local\Temp\VMBuilds\new_LMDZ\STM32_genericSTM32F103C\Debug\core.a(exti.c.o)
 .bss           0x00000000        0x0 C:\Users\20131\AppData\Local\Temp\VMBuilds\new_LMDZ\STM32_genericSTM32F103C\Debug\core.a(exti.c.o)
 .text.exti_attach_callback
                0x00000000       0xac C:\Users\20131\AppData\Local\Temp\VMBuilds\new_LMDZ\STM32_genericSTM32F103C\Debug\core.a(exti.c.o)
 .text.exti_attach_interrupt
                0x00000000       0x10 C:\Users\20131\AppData\Local\Temp\VMBuilds\new_LMDZ\STM32_genericSTM32F103C\Debug\core.a(exti.c.o)
 .text.exti_detach_interrupt
                0x00000000       0x28 C:\Users\20131\AppData\Local\Temp\VMBuilds\new_LMDZ\STM32_genericSTM32F103C\Debug\core.a(exti.c.o)
 .text.exti_do_select
                0x00000000       0x1a C:\Users\20131\AppData\Local\Temp\VMBuilds\new_LMDZ\STM32_genericSTM32F103C\Debug\core.a(exti.c.o)
 .text          0x00000000        0x0 C:\Users\20131\AppData\Local\Temp\VMBuilds\new_LMDZ\STM32_genericSTM32F103C\Debug\core.a(exti_f1.c.o)
 .data          0x00000000        0x0 C:\Users\20131\AppData\Local\Temp\VMBuilds\new_LMDZ\STM32_genericSTM32F103C\Debug\core.a(exti_f1.c.o)
 .bss           0x00000000        0x0 C:\Users\20131\AppData\Local\Temp\VMBuilds\new_LMDZ\STM32_genericSTM32F103C\Debug\core.a(exti_f1.c.o)
 .text.exti_select
                0x00000000       0x18 C:\Users\20131\AppData\Local\Temp\VMBuilds\new_LMDZ\STM32_genericSTM32F103C\Debug\core.a(exti_f1.c.o)
 .text          0x00000000        0x0 C:\Users\20131\AppData\Local\Temp\VMBuilds\new_LMDZ\STM32_genericSTM32F103C\Debug\core.a(flash.c.o)
 .data          0x00000000        0x0 C:\Users\20131\AppData\Local\Temp\VMBuilds\new_LMDZ\STM32_genericSTM32F103C\Debug\core.a(flash.c.o)
 .bss           0x00000000        0x0 C:\Users\20131\AppData\Local\Temp\VMBuilds\new_LMDZ\STM32_genericSTM32F103C\Debug\core.a(flash.c.o)
 .text          0x00000000        0x0 C:\Users\20131\AppData\Local\Temp\VMBuilds\new_LMDZ\STM32_genericSTM32F103C\Debug\core.a(gpio_f1.c.o)
 .data          0x00000000        0x0 C:\Users\20131\AppData\Local\Temp\VMBuilds\new_LMDZ\STM32_genericSTM32F103C\Debug\core.a(gpio_f1.c.o)
 .bss           0x00000000        0x0 C:\Users\20131\AppData\Local\Temp\VMBuilds\new_LMDZ\STM32_genericSTM32F103C\Debug\core.a(gpio_f1.c.o)
 .text.gpio_get_mode
                0x00000000       0x2a C:\Users\20131\AppData\Local\Temp\VMBuilds\new_LMDZ\STM32_genericSTM32F103C\Debug\core.a(gpio_f1.c.o)
 .text.afio_remap
                0x00000000       0x20 C:\Users\20131\AppData\Local\Temp\VMBuilds\new_LMDZ\STM32_genericSTM32F103C\Debug\core.a(gpio_f1.c.o)
 .rodata.GPIOA  0x00000000        0x4 C:\Users\20131\AppData\Local\Temp\VMBuilds\new_LMDZ\STM32_genericSTM32F103C\Debug\core.a(gpio_f1.c.o)
 .rodata.GPIOB  0x00000000        0x4 C:\Users\20131\AppData\Local\Temp\VMBuilds\new_LMDZ\STM32_genericSTM32F103C\Debug\core.a(gpio_f1.c.o)
 .rodata.GPIOD  0x00000000        0x4 C:\Users\20131\AppData\Local\Temp\VMBuilds\new_LMDZ\STM32_genericSTM32F103C\Debug\core.a(gpio_f1.c.o)
 .text          0x00000000        0x0 C:\Users\20131\AppData\Local\Temp\VMBuilds\new_LMDZ\STM32_genericSTM32F103C\Debug\core.a(i2c_f1.c.o)
 .data          0x00000000        0x0 C:\Users\20131\AppData\Local\Temp\VMBuilds\new_LMDZ\STM32_genericSTM32F103C\Debug\core.a(i2c_f1.c.o)
 .bss           0x00000000        0x0 C:\Users\20131\AppData\Local\Temp\VMBuilds\new_LMDZ\STM32_genericSTM32F103C\Debug\core.a(i2c_f1.c.o)
 .text.i2c_config_gpios
                0x00000000       0x58 C:\Users\20131\AppData\Local\Temp\VMBuilds\new_LMDZ\STM32_genericSTM32F103C\Debug\core.a(i2c_f1.c.o)
 .text.i2c_master_release_bus
                0x00000000       0x4c C:\Users\20131\AppData\Local\Temp\VMBuilds\new_LMDZ\STM32_genericSTM32F103C\Debug\core.a(i2c_f1.c.o)
 .rodata.I2C1   0x00000000        0x4 C:\Users\20131\AppData\Local\Temp\VMBuilds\new_LMDZ\STM32_genericSTM32F103C\Debug\core.a(i2c_f1.c.o)
 .rodata.I2C2   0x00000000        0x4 C:\Users\20131\AppData\Local\Temp\VMBuilds\new_LMDZ\STM32_genericSTM32F103C\Debug\core.a(i2c_f1.c.o)
 .text          0x00000000        0x0 C:\Users\20131\AppData\Local\Temp\VMBuilds\new_LMDZ\STM32_genericSTM32F103C\Debug\core.a(nvic.c.o)
 .data          0x00000000        0x0 C:\Users\20131\AppData\Local\Temp\VMBuilds\new_LMDZ\STM32_genericSTM32F103C\Debug\core.a(nvic.c.o)
 .bss           0x00000000        0x0 C:\Users\20131\AppData\Local\Temp\VMBuilds\new_LMDZ\STM32_genericSTM32F103C\Debug\core.a(nvic.c.o)
 .text.nvic_set_vector_table
                0x00000000       0x14 C:\Users\20131\AppData\Local\Temp\VMBuilds\new_LMDZ\STM32_genericSTM32F103C\Debug\core.a(nvic.c.o)
 .text.nvic_sys_reset
                0x00000000       0x1c C:\Users\20131\AppData\Local\Temp\VMBuilds\new_LMDZ\STM32_genericSTM32F103C\Debug\core.a(nvic.c.o)
 .text          0x00000000        0x0 C:\Users\20131\AppData\Local\Temp\VMBuilds\new_LMDZ\STM32_genericSTM32F103C\Debug\core.a(rcc.c.o)
 .data          0x00000000        0x0 C:\Users\20131\AppData\Local\Temp\VMBuilds\new_LMDZ\STM32_genericSTM32F103C\Debug\core.a(rcc.c.o)
 .bss           0x00000000        0x0 C:\Users\20131\AppData\Local\Temp\VMBuilds\new_LMDZ\STM32_genericSTM32F103C\Debug\core.a(rcc.c.o)
 .text          0x00000000        0x0 C:\Users\20131\AppData\Local\Temp\VMBuilds\new_LMDZ\STM32_genericSTM32F103C\Debug\core.a(rcc_f1.c.o)
 .data          0x00000000        0x0 C:\Users\20131\AppData\Local\Temp\VMBuilds\new_LMDZ\STM32_genericSTM32F103C\Debug\core.a(rcc_f1.c.o)
 .bss           0x00000000        0x0 C:\Users\20131\AppData\Local\Temp\VMBuilds\new_LMDZ\STM32_genericSTM32F103C\Debug\core.a(rcc_f1.c.o)
 .text.rcc_clk_init
                0x00000000       0x3c C:\Users\20131\AppData\Local\Temp\VMBuilds\new_LMDZ\STM32_genericSTM32F103C\Debug\core.a(rcc_f1.c.o)
 .text          0x00000000        0x0 C:\Users\20131\AppData\Local\Temp\VMBuilds\new_LMDZ\STM32_genericSTM32F103C\Debug\core.a(systick.c.o)
 .data          0x00000000        0x0 C:\Users\20131\AppData\Local\Temp\VMBuilds\new_LMDZ\STM32_genericSTM32F103C\Debug\core.a(systick.c.o)
 .bss           0x00000000        0x0 C:\Users\20131\AppData\Local\Temp\VMBuilds\new_LMDZ\STM32_genericSTM32F103C\Debug\core.a(systick.c.o)
 .text.systick_disable
                0x00000000        0xc C:\Users\20131\AppData\Local\Temp\VMBuilds\new_LMDZ\STM32_genericSTM32F103C\Debug\core.a(systick.c.o)
 .text.systick_enable
                0x00000000        0xc C:\Users\20131\AppData\Local\Temp\VMBuilds\new_LMDZ\STM32_genericSTM32F103C\Debug\core.a(systick.c.o)
 .text.systick_attach_callback
                0x00000000        0xc C:\Users\20131\AppData\Local\Temp\VMBuilds\new_LMDZ\STM32_genericSTM32F103C\Debug\core.a(systick.c.o)
 .text          0x00000000        0x0 C:\Users\20131\AppData\Local\Temp\VMBuilds\new_LMDZ\STM32_genericSTM32F103C\Debug\core.a(timer.c.o)
 .data          0x00000000        0x0 C:\Users\20131\AppData\Local\Temp\VMBuilds\new_LMDZ\STM32_genericSTM32F103C\Debug\core.a(timer.c.o)
 .bss           0x00000000        0x0 C:\Users\20131\AppData\Local\Temp\VMBuilds\new_LMDZ\STM32_genericSTM32F103C\Debug\core.a(timer.c.o)
 .text.timer_disable
                0x00000000       0x12 C:\Users\20131\AppData\Local\Temp\VMBuilds\new_LMDZ\STM32_genericSTM32F103C\Debug\core.a(timer.c.o)
 .text.timer_attach_interrupt
                0x00000000       0xf8 C:\Users\20131\AppData\Local\Temp\VMBuilds\new_LMDZ\STM32_genericSTM32F103C\Debug\core.a(timer.c.o)
 .text.get_direction
                0x00000000        0xe C:\Users\20131\AppData\Local\Temp\VMBuilds\new_LMDZ\STM32_genericSTM32F103C\Debug\core.a(timer.c.o)
 .rodata.TIMER1
                0x00000000        0x4 C:\Users\20131\AppData\Local\Temp\VMBuilds\new_LMDZ\STM32_genericSTM32F103C\Debug\core.a(timer.c.o)
 .rodata.TIMER2
                0x00000000        0x4 C:\Users\20131\AppData\Local\Temp\VMBuilds\new_LMDZ\STM32_genericSTM32F103C\Debug\core.a(timer.c.o)
 .rodata.TIMER3
                0x00000000        0x4 C:\Users\20131\AppData\Local\Temp\VMBuilds\new_LMDZ\STM32_genericSTM32F103C\Debug\core.a(timer.c.o)
 .rodata.TIMER4
                0x00000000        0x4 C:\Users\20131\AppData\Local\Temp\VMBuilds\new_LMDZ\STM32_genericSTM32F103C\Debug\core.a(timer.c.o)
 .text          0x00000000        0x0 C:\Users\20131\AppData\Local\Temp\VMBuilds\new_LMDZ\STM32_genericSTM32F103C\Debug\core.a(usart_f1.c.o)
 .data          0x00000000        0x0 C:\Users\20131\AppData\Local\Temp\VMBuilds\new_LMDZ\STM32_genericSTM32F103C\Debug\core.a(usart_f1.c.o)
 .bss           0x00000000        0x0 C:\Users\20131\AppData\Local\Temp\VMBuilds\new_LMDZ\STM32_genericSTM32F103C\Debug\core.a(usart_f1.c.o)
 .text.usart_foreach
                0x00000000       0x24 C:\Users\20131\AppData\Local\Temp\VMBuilds\new_LMDZ\STM32_genericSTM32F103C\Debug\core.a(usart_f1.c.o)
 .text          0x00000000        0x0 C:\Users\20131\AppData\Local\Temp\VMBuilds\new_LMDZ\STM32_genericSTM32F103C\Debug\core.a(usart_private.c.o)
 .data          0x00000000        0x0 C:\Users\20131\AppData\Local\Temp\VMBuilds\new_LMDZ\STM32_genericSTM32F103C\Debug\core.a(usart_private.c.o)
 .bss           0x00000000        0x0 C:\Users\20131\AppData\Local\Temp\VMBuilds\new_LMDZ\STM32_genericSTM32F103C\Debug\core.a(usart_private.c.o)
 .text          0x00000000        0x0 C:\Users\20131\AppData\Local\Temp\VMBuilds\new_LMDZ\STM32_genericSTM32F103C\Debug\core.a(util.c.o)
 .data          0x00000000        0x0 C:\Users\20131\AppData\Local\Temp\VMBuilds\new_LMDZ\STM32_genericSTM32F103C\Debug\core.a(util.c.o)
 .bss           0x00000000        0x0 C:\Users\20131\AppData\Local\Temp\VMBuilds\new_LMDZ\STM32_genericSTM32F103C\Debug\core.a(util.c.o)
 .text.__assert_func
                0x00000000        0x8 C:\Users\20131\AppData\Local\Temp\VMBuilds\new_LMDZ\STM32_genericSTM32F103C\Debug\core.a(util.c.o)
 .text.abort    0x00000000       0x1c C:\Users\20131\AppData\Local\Temp\VMBuilds\new_LMDZ\STM32_genericSTM32F103C\Debug\core.a(util.c.o)
 .text          0x00000000        0x0 C:\Users\20131\AppData\Local\Temp\VMBuilds\new_LMDZ\STM32_genericSTM32F103C\Debug\core.a(usb.c.o)
 .data          0x00000000        0x0 C:\Users\20131\AppData\Local\Temp\VMBuilds\new_LMDZ\STM32_genericSTM32F103C\Debug\core.a(usb.c.o)
 .bss           0x00000000        0x0 C:\Users\20131\AppData\Local\Temp\VMBuilds\new_LMDZ\STM32_genericSTM32F103C\Debug\core.a(usb.c.o)
 .text.usb_init_usblib
                0x00000000       0x48 C:\Users\20131\AppData\Local\Temp\VMBuilds\new_LMDZ\STM32_genericSTM32F103C\Debug\core.a(usb.c.o)
 .text.usb_power_off
                0x00000000       0x14 C:\Users\20131\AppData\Local\Temp\VMBuilds\new_LMDZ\STM32_genericSTM32F103C\Debug\core.a(usb.c.o)
 .text          0x00000000        0x0 C:\Users\20131\AppData\Local\Temp\VMBuilds\new_LMDZ\STM32_genericSTM32F103C\Debug\core.a(usb_cdcacm.c.o)
 .data          0x00000000        0x0 C:\Users\20131\AppData\Local\Temp\VMBuilds\new_LMDZ\STM32_genericSTM32F103C\Debug\core.a(usb_cdcacm.c.o)
 .bss           0x00000000        0x0 C:\Users\20131\AppData\Local\Temp\VMBuilds\new_LMDZ\STM32_genericSTM32F103C\Debug\core.a(usb_cdcacm.c.o)
 .text.usbSetConfiguration
                0x00000000       0x1c C:\Users\20131\AppData\Local\Temp\VMBuilds\new_LMDZ\STM32_genericSTM32F103C\Debug\core.a(usb_cdcacm.c.o)
 .text.usbSetDeviceAddress
                0x00000000       0x10 C:\Users\20131\AppData\Local\Temp\VMBuilds\new_LMDZ\STM32_genericSTM32F103C\Debug\core.a(usb_cdcacm.c.o)
 .text.vcomDataTxCb
                0x00000000       0xa0 C:\Users\20131\AppData\Local\Temp\VMBuilds\new_LMDZ\STM32_genericSTM32F103C\Debug\core.a(usb_cdcacm.c.o)
 .text.vcomDataRxCb
                0x00000000       0x7c C:\Users\20131\AppData\Local\Temp\VMBuilds\new_LMDZ\STM32_genericSTM32F103C\Debug\core.a(usb_cdcacm.c.o)
 .text.usb_cdcacm_set_hooks
                0x00000000       0x1c C:\Users\20131\AppData\Local\Temp\VMBuilds\new_LMDZ\STM32_genericSTM32F103C\Debug\core.a(usb_cdcacm.c.o)
 .text.usb_cdcacm_enable
                0x00000000       0x38 C:\Users\20131\AppData\Local\Temp\VMBuilds\new_LMDZ\STM32_genericSTM32F103C\Debug\core.a(usb_cdcacm.c.o)
 .text.usb_cdcacm_disable
                0x00000000       0x20 C:\Users\20131\AppData\Local\Temp\VMBuilds\new_LMDZ\STM32_genericSTM32F103C\Debug\core.a(usb_cdcacm.c.o)
 .text.usb_cdcacm_tx
                0x00000000       0x60 C:\Users\20131\AppData\Local\Temp\VMBuilds\new_LMDZ\STM32_genericSTM32F103C\Debug\core.a(usb_cdcacm.c.o)
 .text.usb_cdcacm_putc
                0x00000000       0x1a C:\Users\20131\AppData\Local\Temp\VMBuilds\new_LMDZ\STM32_genericSTM32F103C\Debug\core.a(usb_cdcacm.c.o)
 .text.usb_cdcacm_data_available
                0x00000000       0x18 C:\Users\20131\AppData\Local\Temp\VMBuilds\new_LMDZ\STM32_genericSTM32F103C\Debug\core.a(usb_cdcacm.c.o)
 .text.usb_cdcacm_is_transmitting
                0x00000000       0x14 C:\Users\20131\AppData\Local\Temp\VMBuilds\new_LMDZ\STM32_genericSTM32F103C\Debug\core.a(usb_cdcacm.c.o)
 .text.usb_cdcacm_get_pending
                0x00000000       0x18 C:\Users\20131\AppData\Local\Temp\VMBuilds\new_LMDZ\STM32_genericSTM32F103C\Debug\core.a(usb_cdcacm.c.o)
 .text.usb_cdcacm_tx_available
                0x00000000        0xc C:\Users\20131\AppData\Local\Temp\VMBuilds\new_LMDZ\STM32_genericSTM32F103C\Debug\core.a(usb_cdcacm.c.o)
 .text.usb_cdcacm_peek
                0x00000000       0x38 C:\Users\20131\AppData\Local\Temp\VMBuilds\new_LMDZ\STM32_genericSTM32F103C\Debug\core.a(usb_cdcacm.c.o)
 .text.usb_cdcacm_rx
                0x00000000       0x34 C:\Users\20131\AppData\Local\Temp\VMBuilds\new_LMDZ\STM32_genericSTM32F103C\Debug\core.a(usb_cdcacm.c.o)
 .text.usb_cdcacm_peek_ex
                0x00000000       0x40 C:\Users\20131\AppData\Local\Temp\VMBuilds\new_LMDZ\STM32_genericSTM32F103C\Debug\core.a(usb_cdcacm.c.o)
 .text.usb_cdcacm_peek_char
                0x00000000       0x24 C:\Users\20131\AppData\Local\Temp\VMBuilds\new_LMDZ\STM32_genericSTM32F103C\Debug\core.a(usb_cdcacm.c.o)
 .text.usb_cdcacm_get_dtr
                0x00000000       0x10 C:\Users\20131\AppData\Local\Temp\VMBuilds\new_LMDZ\STM32_genericSTM32F103C\Debug\core.a(usb_cdcacm.c.o)
 .text.usb_cdcacm_get_rts
                0x00000000       0x10 C:\Users\20131\AppData\Local\Temp\VMBuilds\new_LMDZ\STM32_genericSTM32F103C\Debug\core.a(usb_cdcacm.c.o)
 .text.usb_cdcacm_get_line_coding
                0x00000000       0x18 C:\Users\20131\AppData\Local\Temp\VMBuilds\new_LMDZ\STM32_genericSTM32F103C\Debug\core.a(usb_cdcacm.c.o)
 .text.usb_cdcacm_get_baud
                0x00000000        0xc C:\Users\20131\AppData\Local\Temp\VMBuilds\new_LMDZ\STM32_genericSTM32F103C\Debug\core.a(usb_cdcacm.c.o)
 .text.usb_cdcacm_get_stop_bits
                0x00000000        0xc C:\Users\20131\AppData\Local\Temp\VMBuilds\new_LMDZ\STM32_genericSTM32F103C\Debug\core.a(usb_cdcacm.c.o)
 .text.usb_cdcacm_get_parity
                0x00000000        0xc C:\Users\20131\AppData\Local\Temp\VMBuilds\new_LMDZ\STM32_genericSTM32F103C\Debug\core.a(usb_cdcacm.c.o)
 .text.usb_cdcacm_get_n_data_bits
                0x00000000        0xc C:\Users\20131\AppData\Local\Temp\VMBuilds\new_LMDZ\STM32_genericSTM32F103C\Debug\core.a(usb_cdcacm.c.o)
 .bss.vcomBufferTx
                0x00000000      0x100 C:\Users\20131\AppData\Local\Temp\VMBuilds\new_LMDZ\STM32_genericSTM32F103C\Debug\core.a(usb_cdcacm.c.o)
 .data.ep_int_in
                0x00000000       0x1c C:\Users\20131\AppData\Local\Temp\VMBuilds\new_LMDZ\STM32_genericSTM32F103C\Debug\core.a(usb_cdcacm.c.o)
 .bss.rx_hook   0x00000000        0x4 C:\Users\20131\AppData\Local\Temp\VMBuilds\new_LMDZ\STM32_genericSTM32F103C\Debug\core.a(usb_cdcacm.c.o)
 .bss.vcomBufferRx
                0x00000000      0x100 C:\Users\20131\AppData\Local\Temp\VMBuilds\new_LMDZ\STM32_genericSTM32F103C\Debug\core.a(usb_cdcacm.c.o)
 .data.ep_int_out
                0x00000000       0x1c C:\Users\20131\AppData\Local\Temp\VMBuilds\new_LMDZ\STM32_genericSTM32F103C\Debug\core.a(usb_cdcacm.c.o)
 .data.User_Standard_Requests
                0x00000000       0x24 C:\Users\20131\AppData\Local\Temp\VMBuilds\new_LMDZ\STM32_genericSTM32F103C\Debug\core.a(usb_cdcacm.c.o)
 .text          0x00000000        0x0 C:\Users\20131\AppData\Local\Temp\VMBuilds\new_LMDZ\STM32_genericSTM32F103C\Debug\core.a(usb_reg_map.c.o)
 .data          0x00000000        0x0 C:\Users\20131\AppData\Local\Temp\VMBuilds\new_LMDZ\STM32_genericSTM32F103C\Debug\core.a(usb_reg_map.c.o)
 .bss           0x00000000        0x0 C:\Users\20131\AppData\Local\Temp\VMBuilds\new_LMDZ\STM32_genericSTM32F103C\Debug\core.a(usb_reg_map.c.o)
 .text          0x00000000        0x0 C:\Users\20131\AppData\Local\Temp\VMBuilds\new_LMDZ\STM32_genericSTM32F103C\Debug\core.a(usb_core.c.o)
 .data          0x00000000        0x0 C:\Users\20131\AppData\Local\Temp\VMBuilds\new_LMDZ\STM32_genericSTM32F103C\Debug\core.a(usb_core.c.o)
 .bss           0x00000000        0x0 C:\Users\20131\AppData\Local\Temp\VMBuilds\new_LMDZ\STM32_genericSTM32F103C\Debug\core.a(usb_core.c.o)
 .text          0x00000000        0x0 C:\Users\20131\AppData\Local\Temp\VMBuilds\new_LMDZ\STM32_genericSTM32F103C\Debug\core.a(usb_init.c.o)
 .data          0x00000000        0x0 C:\Users\20131\AppData\Local\Temp\VMBuilds\new_LMDZ\STM32_genericSTM32F103C\Debug\core.a(usb_init.c.o)
 .bss           0x00000000        0x0 C:\Users\20131\AppData\Local\Temp\VMBuilds\new_LMDZ\STM32_genericSTM32F103C\Debug\core.a(usb_init.c.o)
 .text.USB_Init
                0x00000000       0x38 C:\Users\20131\AppData\Local\Temp\VMBuilds\new_LMDZ\STM32_genericSTM32F103C\Debug\core.a(usb_init.c.o)
 .text          0x00000000        0x0 C:\Users\20131\AppData\Local\Temp\VMBuilds\new_LMDZ\STM32_genericSTM32F103C\Debug\core.a(usb_mem.c.o)
 .data          0x00000000        0x0 C:\Users\20131\AppData\Local\Temp\VMBuilds\new_LMDZ\STM32_genericSTM32F103C\Debug\core.a(usb_mem.c.o)
 .bss           0x00000000        0x0 C:\Users\20131\AppData\Local\Temp\VMBuilds\new_LMDZ\STM32_genericSTM32F103C\Debug\core.a(usb_mem.c.o)
 .text          0x00000000        0x0 C:\Users\20131\AppData\Local\Temp\VMBuilds\new_LMDZ\STM32_genericSTM32F103C\Debug\core.a(usb_regs.c.o)
 .data          0x00000000        0x0 C:\Users\20131\AppData\Local\Temp\VMBuilds\new_LMDZ\STM32_genericSTM32F103C\Debug\core.a(usb_regs.c.o)
 .bss           0x00000000        0x0 C:\Users\20131\AppData\Local\Temp\VMBuilds\new_LMDZ\STM32_genericSTM32F103C\Debug\core.a(usb_regs.c.o)
 .text.SetCNTR  0x00000000        0xc C:\Users\20131\AppData\Local\Temp\VMBuilds\new_LMDZ\STM32_genericSTM32F103C\Debug\core.a(usb_regs.c.o)
 .text.GetCNTR  0x00000000        0xc C:\Users\20131\AppData\Local\Temp\VMBuilds\new_LMDZ\STM32_genericSTM32F103C\Debug\core.a(usb_regs.c.o)
 .text.SetISTR  0x00000000        0xc C:\Users\20131\AppData\Local\Temp\VMBuilds\new_LMDZ\STM32_genericSTM32F103C\Debug\core.a(usb_regs.c.o)
 .text.GetISTR  0x00000000        0xc C:\Users\20131\AppData\Local\Temp\VMBuilds\new_LMDZ\STM32_genericSTM32F103C\Debug\core.a(usb_regs.c.o)
 .text.GetFNR   0x00000000        0xc C:\Users\20131\AppData\Local\Temp\VMBuilds\new_LMDZ\STM32_genericSTM32F103C\Debug\core.a(usb_regs.c.o)
 .text.SetDADDR
                0x00000000        0xc C:\Users\20131\AppData\Local\Temp\VMBuilds\new_LMDZ\STM32_genericSTM32F103C\Debug\core.a(usb_regs.c.o)
 .text.GetDADDR
                0x00000000        0xc C:\Users\20131\AppData\Local\Temp\VMBuilds\new_LMDZ\STM32_genericSTM32F103C\Debug\core.a(usb_regs.c.o)
 .text.SetBTABLE
                0x00000000       0x10 C:\Users\20131\AppData\Local\Temp\VMBuilds\new_LMDZ\STM32_genericSTM32F103C\Debug\core.a(usb_regs.c.o)
 .text.GetBTABLE
                0x00000000        0xc C:\Users\20131\AppData\Local\Temp\VMBuilds\new_LMDZ\STM32_genericSTM32F103C\Debug\core.a(usb_regs.c.o)
 .text.SetENDPOINT
                0x00000000        0xe C:\Users\20131\AppData\Local\Temp\VMBuilds\new_LMDZ\STM32_genericSTM32F103C\Debug\core.a(usb_regs.c.o)
 .text.GetENDPOINT
                0x00000000       0x10 C:\Users\20131\AppData\Local\Temp\VMBuilds\new_LMDZ\STM32_genericSTM32F103C\Debug\core.a(usb_regs.c.o)
 .text.SetEPType
                0x00000000       0x1c C:\Users\20131\AppData\Local\Temp\VMBuilds\new_LMDZ\STM32_genericSTM32F103C\Debug\core.a(usb_regs.c.o)
 .text.GetEPType
                0x00000000       0x12 C:\Users\20131\AppData\Local\Temp\VMBuilds\new_LMDZ\STM32_genericSTM32F103C\Debug\core.a(usb_regs.c.o)
 .text.SetEPRxStatus
                0x00000000       0x2a C:\Users\20131\AppData\Local\Temp\VMBuilds\new_LMDZ\STM32_genericSTM32F103C\Debug\core.a(usb_regs.c.o)
 .text.SetDouBleBuffEPStall
                0x00000000       0x24 C:\Users\20131\AppData\Local\Temp\VMBuilds\new_LMDZ\STM32_genericSTM32F103C\Debug\core.a(usb_regs.c.o)
 .text.GetEPTxStatus
                0x00000000       0x12 C:\Users\20131\AppData\Local\Temp\VMBuilds\new_LMDZ\STM32_genericSTM32F103C\Debug\core.a(usb_regs.c.o)
 .text.GetEPRxStatus
                0x00000000       0x12 C:\Users\20131\AppData\Local\Temp\VMBuilds\new_LMDZ\STM32_genericSTM32F103C\Debug\core.a(usb_regs.c.o)
 .text.SetEPTxValid
                0x00000000       0x1e C:\Users\20131\AppData\Local\Temp\VMBuilds\new_LMDZ\STM32_genericSTM32F103C\Debug\core.a(usb_regs.c.o)
 .text.SetEPRxValid
                0x00000000       0x1e C:\Users\20131\AppData\Local\Temp\VMBuilds\new_LMDZ\STM32_genericSTM32F103C\Debug\core.a(usb_regs.c.o)
 .text.SetEP_KIND
                0x00000000       0x1e C:\Users\20131\AppData\Local\Temp\VMBuilds\new_LMDZ\STM32_genericSTM32F103C\Debug\core.a(usb_regs.c.o)
 .text.ClearEP_KIND
                0x00000000       0x1c C:\Users\20131\AppData\Local\Temp\VMBuilds\new_LMDZ\STM32_genericSTM32F103C\Debug\core.a(usb_regs.c.o)
 .text.Clear_Status_Out
                0x00000000       0x1c C:\Users\20131\AppData\Local\Temp\VMBuilds\new_LMDZ\STM32_genericSTM32F103C\Debug\core.a(usb_regs.c.o)
 .text.Set_Status_Out
                0x00000000       0x1e C:\Users\20131\AppData\Local\Temp\VMBuilds\new_LMDZ\STM32_genericSTM32F103C\Debug\core.a(usb_regs.c.o)
 .text.SetEPDoubleBuff
                0x00000000       0x1e C:\Users\20131\AppData\Local\Temp\VMBuilds\new_LMDZ\STM32_genericSTM32F103C\Debug\core.a(usb_regs.c.o)
 .text.ClearEPDoubleBuff
                0x00000000       0x1c C:\Users\20131\AppData\Local\Temp\VMBuilds\new_LMDZ\STM32_genericSTM32F103C\Debug\core.a(usb_regs.c.o)
 .text.GetTxStallStatus
                0x00000000       0x1a C:\Users\20131\AppData\Local\Temp\VMBuilds\new_LMDZ\STM32_genericSTM32F103C\Debug\core.a(usb_regs.c.o)
 .text.GetRxStallStatus
                0x00000000       0x1a C:\Users\20131\AppData\Local\Temp\VMBuilds\new_LMDZ\STM32_genericSTM32F103C\Debug\core.a(usb_regs.c.o)
 .text.ClearEP_CTR_RX
                0x00000000       0x18 C:\Users\20131\AppData\Local\Temp\VMBuilds\new_LMDZ\STM32_genericSTM32F103C\Debug\core.a(usb_regs.c.o)
 .text.ClearEP_CTR_TX
                0x00000000       0x1c C:\Users\20131\AppData\Local\Temp\VMBuilds\new_LMDZ\STM32_genericSTM32F103C\Debug\core.a(usb_regs.c.o)
 .text.ToggleDTOG_RX
                0x00000000       0x20 C:\Users\20131\AppData\Local\Temp\VMBuilds\new_LMDZ\STM32_genericSTM32F103C\Debug\core.a(usb_regs.c.o)
 .text.ToggleDTOG_TX
                0x00000000       0x20 C:\Users\20131\AppData\Local\Temp\VMBuilds\new_LMDZ\STM32_genericSTM32F103C\Debug\core.a(usb_regs.c.o)
 .text.SetEPAddress
                0x00000000       0x1e C:\Users\20131\AppData\Local\Temp\VMBuilds\new_LMDZ\STM32_genericSTM32F103C\Debug\core.a(usb_regs.c.o)
 .text.GetEPAddress
                0x00000000       0x12 C:\Users\20131\AppData\Local\Temp\VMBuilds\new_LMDZ\STM32_genericSTM32F103C\Debug\core.a(usb_regs.c.o)
 .text.SetEPTxAddr
                0x00000000       0x20 C:\Users\20131\AppData\Local\Temp\VMBuilds\new_LMDZ\STM32_genericSTM32F103C\Debug\core.a(usb_regs.c.o)
 .text.SetEPRxAddr
                0x00000000       0x20 C:\Users\20131\AppData\Local\Temp\VMBuilds\new_LMDZ\STM32_genericSTM32F103C\Debug\core.a(usb_regs.c.o)
 .text.SetEPCountRxReg
                0x00000000       0x26 C:\Users\20131\AppData\Local\Temp\VMBuilds\new_LMDZ\STM32_genericSTM32F103C\Debug\core.a(usb_regs.c.o)
 .text.GetEPTxCount
                0x00000000       0x20 C:\Users\20131\AppData\Local\Temp\VMBuilds\new_LMDZ\STM32_genericSTM32F103C\Debug\core.a(usb_regs.c.o)
 .text.GetEPRxCount
                0x00000000       0x20 C:\Users\20131\AppData\Local\Temp\VMBuilds\new_LMDZ\STM32_genericSTM32F103C\Debug\core.a(usb_regs.c.o)
 .text.SetEPDblBuffAddr
                0x00000000       0x38 C:\Users\20131\AppData\Local\Temp\VMBuilds\new_LMDZ\STM32_genericSTM32F103C\Debug\core.a(usb_regs.c.o)
 .text.SetEPDblBuf0Addr
                0x00000000       0x20 C:\Users\20131\AppData\Local\Temp\VMBuilds\new_LMDZ\STM32_genericSTM32F103C\Debug\core.a(usb_regs.c.o)
 .text.SetEPDblBuf1Addr
                0x00000000       0x20 C:\Users\20131\AppData\Local\Temp\VMBuilds\new_LMDZ\STM32_genericSTM32F103C\Debug\core.a(usb_regs.c.o)
 .text.GetEPDblBuf0Addr
                0x00000000       0x1c C:\Users\20131\AppData\Local\Temp\VMBuilds\new_LMDZ\STM32_genericSTM32F103C\Debug\core.a(usb_regs.c.o)
 .text.GetEPDblBuf1Addr
                0x00000000       0x1c C:\Users\20131\AppData\Local\Temp\VMBuilds\new_LMDZ\STM32_genericSTM32F103C\Debug\core.a(usb_regs.c.o)
 .text.SetEPDblBuffCount
                0x00000000       0xa8 C:\Users\20131\AppData\Local\Temp\VMBuilds\new_LMDZ\STM32_genericSTM32F103C\Debug\core.a(usb_regs.c.o)
 .text.SetEPDblBuf0Count
                0x00000000       0x5c C:\Users\20131\AppData\Local\Temp\VMBuilds\new_LMDZ\STM32_genericSTM32F103C\Debug\core.a(usb_regs.c.o)
 .text.SetEPDblBuf1Count
                0x00000000       0x5c C:\Users\20131\AppData\Local\Temp\VMBuilds\new_LMDZ\STM32_genericSTM32F103C\Debug\core.a(usb_regs.c.o)
 .text.GetEPDblBuf0Count
                0x00000000       0x20 C:\Users\20131\AppData\Local\Temp\VMBuilds\new_LMDZ\STM32_genericSTM32F103C\Debug\core.a(usb_regs.c.o)
 .text.GetEPDblBuf1Count
                0x00000000       0x20 C:\Users\20131\AppData\Local\Temp\VMBuilds\new_LMDZ\STM32_genericSTM32F103C\Debug\core.a(usb_regs.c.o)
 .text.GetEPDblBufDir
                0x00000000       0x44 C:\Users\20131\AppData\Local\Temp\VMBuilds\new_LMDZ\STM32_genericSTM32F103C\Debug\core.a(usb_regs.c.o)
 .text.FreeUserBuffer
                0x00000000       0x3a C:\Users\20131\AppData\Local\Temp\VMBuilds\new_LMDZ\STM32_genericSTM32F103C\Debug\core.a(usb_regs.c.o)
 .text.ToWord   0x00000000        0x6 C:\Users\20131\AppData\Local\Temp\VMBuilds\new_LMDZ\STM32_genericSTM32F103C\Debug\core.a(usb_regs.c.o)
 .text.ByteSwap
                0x00000000        0xa C:\Users\20131\AppData\Local\Temp\VMBuilds\new_LMDZ\STM32_genericSTM32F103C\Debug\core.a(usb_regs.c.o)
 .group         0x00000000        0x8 C:\Users\20131\AppData\Local\Temp\VMBuilds\new_LMDZ\STM32_genericSTM32F103C\Debug\core.a(HardwareSerial.cpp.o)
 .text          0x00000000        0x0 C:\Users\20131\AppData\Local\Temp\VMBuilds\new_LMDZ\STM32_genericSTM32F103C\Debug\core.a(HardwareSerial.cpp.o)
 .data          0x00000000        0x0 C:\Users\20131\AppData\Local\Temp\VMBuilds\new_LMDZ\STM32_genericSTM32F103C\Debug\core.a(HardwareSerial.cpp.o)
 .bss           0x00000000        0x0 C:\Users\20131\AppData\Local\Temp\VMBuilds\new_LMDZ\STM32_genericSTM32F103C\Debug\core.a(HardwareSerial.cpp.o)
 .text._ZN14HardwareSerial3endEv
                0x00000000        0x6 C:\Users\20131\AppData\Local\Temp\VMBuilds\new_LMDZ\STM32_genericSTM32F103C\Debug\core.a(HardwareSerial.cpp.o)
 .text._ZN14HardwareSerial17availableForWriteEv
                0x00000000       0x12 C:\Users\20131\AppData\Local\Temp\VMBuilds\new_LMDZ\STM32_genericSTM32F103C\Debug\core.a(HardwareSerial.cpp.o)
 .rodata._ZTV6Stream
                0x00000000       0x28 C:\Users\20131\AppData\Local\Temp\VMBuilds\new_LMDZ\STM32_genericSTM32F103C\Debug\core.a(HardwareSerial.cpp.o)
 .text          0x00000000        0x0 C:\Users\20131\AppData\Local\Temp\VMBuilds\new_LMDZ\STM32_genericSTM32F103C\Debug\core.a(main.cpp.o)
 .data          0x00000000        0x0 C:\Users\20131\AppData\Local\Temp\VMBuilds\new_LMDZ\STM32_genericSTM32F103C\Debug\core.a(main.cpp.o)
 .bss           0x00000000        0x0 C:\Users\20131\AppData\Local\Temp\VMBuilds\new_LMDZ\STM32_genericSTM32F103C\Debug\core.a(main.cpp.o)
 .text          0x00000000        0x0 C:\Users\20131\AppData\Local\Temp\VMBuilds\new_LMDZ\STM32_genericSTM32F103C\Debug\core.a(Print.cpp.o)
 .data          0x00000000        0x0 C:\Users\20131\AppData\Local\Temp\VMBuilds\new_LMDZ\STM32_genericSTM32F103C\Debug\core.a(Print.cpp.o)
 .bss           0x00000000        0x0 C:\Users\20131\AppData\Local\Temp\VMBuilds\new_LMDZ\STM32_genericSTM32F103C\Debug\core.a(Print.cpp.o)
 .text._ZN5Print5printERK6String
                0x00000000       0x10 C:\Users\20131\AppData\Local\Temp\VMBuilds\new_LMDZ\STM32_genericSTM32F103C\Debug\core.a(Print.cpp.o)
 .text._ZN5Print5printEPK19__FlashStringHelper
                0x00000000        0x4 C:\Users\20131\AppData\Local\Temp\VMBuilds\new_LMDZ\STM32_genericSTM32F103C\Debug\core.a(Print.cpp.o)
 .text._ZN5Print5printERK9Printable
                0x00000000       0x10 C:\Users\20131\AppData\Local\Temp\VMBuilds\new_LMDZ\STM32_genericSTM32F103C\Debug\core.a(Print.cpp.o)
 .text._ZN5Print7printlnERK6String
                0x00000000       0x14 C:\Users\20131\AppData\Local\Temp\VMBuilds\new_LMDZ\STM32_genericSTM32F103C\Debug\core.a(Print.cpp.o)
 .text._ZN5Print7printlnEc
                0x00000000       0x14 C:\Users\20131\AppData\Local\Temp\VMBuilds\new_LMDZ\STM32_genericSTM32F103C\Debug\core.a(Print.cpp.o)
 .text._ZN5Print7printlnEPK19__FlashStringHelper
                0x00000000       0x14 C:\Users\20131\AppData\Local\Temp\VMBuilds\new_LMDZ\STM32_genericSTM32F103C\Debug\core.a(Print.cpp.o)
 .text._ZN5Print7printlnERK9Printable
                0x00000000       0x14 C:\Users\20131\AppData\Local\Temp\VMBuilds\new_LMDZ\STM32_genericSTM32F103C\Debug\core.a(Print.cpp.o)
 .text._ZN5Print7printlnEii
                0x00000000       0x14 C:\Users\20131\AppData\Local\Temp\VMBuilds\new_LMDZ\STM32_genericSTM32F103C\Debug\core.a(Print.cpp.o)
 .text._ZN5Print5printEli
                0x00000000       0x12 C:\Users\20131\AppData\Local\Temp\VMBuilds\new_LMDZ\STM32_genericSTM32F103C\Debug\core.a(Print.cpp.o)
 .text._ZN5Print7printlnEli
                0x00000000       0x1c C:\Users\20131\AppData\Local\Temp\VMBuilds\new_LMDZ\STM32_genericSTM32F103C\Debug\core.a(Print.cpp.o)
 .text._ZN5Print7printlnExi
                0x00000000       0x1a C:\Users\20131\AppData\Local\Temp\VMBuilds\new_LMDZ\STM32_genericSTM32F103C\Debug\core.a(Print.cpp.o)
 .text._ZN5Print5printEyi
                0x00000000        0xa C:\Users\20131\AppData\Local\Temp\VMBuilds\new_LMDZ\STM32_genericSTM32F103C\Debug\core.a(Print.cpp.o)
 .text._ZN5Print5printEhi
                0x00000000       0x14 C:\Users\20131\AppData\Local\Temp\VMBuilds\new_LMDZ\STM32_genericSTM32F103C\Debug\core.a(Print.cpp.o)
 .text._ZN5Print7printlnEhi
                0x00000000       0x14 C:\Users\20131\AppData\Local\Temp\VMBuilds\new_LMDZ\STM32_genericSTM32F103C\Debug\core.a(Print.cpp.o)
 .text._ZN5Print5printEji
                0x00000000       0x14 C:\Users\20131\AppData\Local\Temp\VMBuilds\new_LMDZ\STM32_genericSTM32F103C\Debug\core.a(Print.cpp.o)
 .text._ZN5Print7printlnEji
                0x00000000       0x14 C:\Users\20131\AppData\Local\Temp\VMBuilds\new_LMDZ\STM32_genericSTM32F103C\Debug\core.a(Print.cpp.o)
 .text._ZN5Print5printEmi
                0x00000000       0x14 C:\Users\20131\AppData\Local\Temp\VMBuilds\new_LMDZ\STM32_genericSTM32F103C\Debug\core.a(Print.cpp.o)
 .text._ZN5Print7printlnEmi
                0x00000000       0x1e C:\Users\20131\AppData\Local\Temp\VMBuilds\new_LMDZ\STM32_genericSTM32F103C\Debug\core.a(Print.cpp.o)
 .text._ZN5Print7printlnEyi
                0x00000000       0x1c C:\Users\20131\AppData\Local\Temp\VMBuilds\new_LMDZ\STM32_genericSTM32F103C\Debug\core.a(Print.cpp.o)
 .text._ZN5Print10printFloatEdh
                0x00000000      0x158 C:\Users\20131\AppData\Local\Temp\VMBuilds\new_LMDZ\STM32_genericSTM32F103C\Debug\core.a(Print.cpp.o)
 .text._ZN5Print5printEdi
                0x00000000        0xa C:\Users\20131\AppData\Local\Temp\VMBuilds\new_LMDZ\STM32_genericSTM32F103C\Debug\core.a(Print.cpp.o)
 .text._ZN5Print7printlnEdi
                0x00000000       0x1c C:\Users\20131\AppData\Local\Temp\VMBuilds\new_LMDZ\STM32_genericSTM32F103C\Debug\core.a(Print.cpp.o)
 .rodata._ZTV5Print
                0x00000000       0x18 C:\Users\20131\AppData\Local\Temp\VMBuilds\new_LMDZ\STM32_genericSTM32F103C\Debug\core.a(Print.cpp.o)
 .rodata.str1.1
                0x00000000       0x11 C:\Users\20131\AppData\Local\Temp\VMBuilds\new_LMDZ\STM32_genericSTM32F103C\Debug\core.a(Print.cpp.o)
 .text          0x00000000        0x0 C:\Users\20131\AppData\Local\Temp\VMBuilds\new_LMDZ\STM32_genericSTM32F103C\Debug\core.a(wirish_analog.cpp.o)
 .data          0x00000000        0x0 C:\Users\20131\AppData\Local\Temp\VMBuilds\new_LMDZ\STM32_genericSTM32F103C\Debug\core.a(wirish_analog.cpp.o)
 .bss           0x00000000        0x0 C:\Users\20131\AppData\Local\Temp\VMBuilds\new_LMDZ\STM32_genericSTM32F103C\Debug\core.a(wirish_analog.cpp.o)
 .text          0x00000000        0x0 C:\Users\20131\AppData\Local\Temp\VMBuilds\new_LMDZ\STM32_genericSTM32F103C\Debug\core.a(wirish_time.cpp.o)
 .data          0x00000000        0x0 C:\Users\20131\AppData\Local\Temp\VMBuilds\new_LMDZ\STM32_genericSTM32F103C\Debug\core.a(wirish_time.cpp.o)
 .bss           0x00000000        0x0 C:\Users\20131\AppData\Local\Temp\VMBuilds\new_LMDZ\STM32_genericSTM32F103C\Debug\core.a(wirish_time.cpp.o)
 .text._Z17delayMicrosecondsm
                0x00000000       0x10 C:\Users\20131\AppData\Local\Temp\VMBuilds\new_LMDZ\STM32_genericSTM32F103C\Debug\core.a(wirish_time.cpp.o)
 .text          0x00000000        0x0 C:\Users\20131\AppData\Local\Temp\VMBuilds\new_LMDZ\STM32_genericSTM32F103C\Debug\core.a(wirish_digital_f1.cpp.o)
 .data          0x00000000        0x0 C:\Users\20131\AppData\Local\Temp\VMBuilds\new_LMDZ\STM32_genericSTM32F103C\Debug\core.a(wirish_digital_f1.cpp.o)
 .bss           0x00000000        0x0 C:\Users\20131\AppData\Local\Temp\VMBuilds\new_LMDZ\STM32_genericSTM32F103C\Debug\core.a(wirish_digital_f1.cpp.o)
 .text          0x00000000        0x0 C:\Users\20131\AppData\Local\Temp\VMBuilds\new_LMDZ\STM32_genericSTM32F103C\Debug\core.a(hooks.c.o)
 .data          0x00000000        0x0 C:\Users\20131\AppData\Local\Temp\VMBuilds\new_LMDZ\STM32_genericSTM32F103C\Debug\core.a(hooks.c.o)
 .bss           0x00000000        0x0 C:\Users\20131\AppData\Local\Temp\VMBuilds\new_LMDZ\STM32_genericSTM32F103C\Debug\core.a(hooks.c.o)
 .text          0x00000000        0x0 C:\Users\20131\AppData\Local\Temp\VMBuilds\new_LMDZ\STM32_genericSTM32F103C\Debug\core.a(dma.c.o)
 .data          0x00000000        0x0 C:\Users\20131\AppData\Local\Temp\VMBuilds\new_LMDZ\STM32_genericSTM32F103C\Debug\core.a(dma.c.o)
 .bss           0x00000000        0x0 C:\Users\20131\AppData\Local\Temp\VMBuilds\new_LMDZ\STM32_genericSTM32F103C\Debug\core.a(dma.c.o)
 .text.dma_init
                0x00000000        0x6 C:\Users\20131\AppData\Local\Temp\VMBuilds\new_LMDZ\STM32_genericSTM32F103C\Debug\core.a(dma.c.o)
 .text._dma_addr_type
                0x00000000       0x28 C:\Users\20131\AppData\Local\Temp\VMBuilds\new_LMDZ\STM32_genericSTM32F103C\Debug\core.a(dma.c.o)
 .text          0x00000000        0x0 C:\Users\20131\AppData\Local\Temp\VMBuilds\new_LMDZ\STM32_genericSTM32F103C\Debug\core.a(gpio.c.o)
 .data          0x00000000        0x0 C:\Users\20131\AppData\Local\Temp\VMBuilds\new_LMDZ\STM32_genericSTM32F103C\Debug\core.a(gpio.c.o)
 .bss           0x00000000        0x0 C:\Users\20131\AppData\Local\Temp\VMBuilds\new_LMDZ\STM32_genericSTM32F103C\Debug\core.a(gpio.c.o)
 .text          0x00000000        0x0 C:\Users\20131\AppData\Local\Temp\VMBuilds\new_LMDZ\STM32_genericSTM32F103C\Debug\core.a(i2c.c.o)
 .data          0x00000000        0x0 C:\Users\20131\AppData\Local\Temp\VMBuilds\new_LMDZ\STM32_genericSTM32F103C\Debug\core.a(i2c.c.o)
 .bss           0x00000000        0x0 C:\Users\20131\AppData\Local\Temp\VMBuilds\new_LMDZ\STM32_genericSTM32F103C\Debug\core.a(i2c.c.o)
 .text.delay_us.part.0.constprop.6
                0x00000000        0xa C:\Users\20131\AppData\Local\Temp\VMBuilds\new_LMDZ\STM32_genericSTM32F103C\Debug\core.a(i2c.c.o)
 .text.i2c_bus_reset
                0x00000000       0xb2 C:\Users\20131\AppData\Local\Temp\VMBuilds\new_LMDZ\STM32_genericSTM32F103C\Debug\core.a(i2c.c.o)
 .text.i2c_init
                0x00000000       0x18 C:\Users\20131\AppData\Local\Temp\VMBuilds\new_LMDZ\STM32_genericSTM32F103C\Debug\core.a(i2c.c.o)
 .text.i2c_master_enable
                0x00000000       0xe0 C:\Users\20131\AppData\Local\Temp\VMBuilds\new_LMDZ\STM32_genericSTM32F103C\Debug\core.a(i2c.c.o)
 .text.i2c_master_xfer
                0x00000000       0x5c C:\Users\20131\AppData\Local\Temp\VMBuilds\new_LMDZ\STM32_genericSTM32F103C\Debug\core.a(i2c.c.o)
 .text          0x00000000        0x0 C:\Users\20131\AppData\Local\Temp\VMBuilds\new_LMDZ\STM32_genericSTM32F103C\Debug\core.a(usart.c.o)
 .data          0x00000000        0x0 C:\Users\20131\AppData\Local\Temp\VMBuilds\new_LMDZ\STM32_genericSTM32F103C\Debug\core.a(usart.c.o)
 .bss           0x00000000        0x0 C:\Users\20131\AppData\Local\Temp\VMBuilds\new_LMDZ\STM32_genericSTM32F103C\Debug\core.a(usart.c.o)
 .text.usart_disable
                0x00000000       0x38 C:\Users\20131\AppData\Local\Temp\VMBuilds\new_LMDZ\STM32_genericSTM32F103C\Debug\core.a(usart.c.o)
 .text.usart_rx
                0x00000000       0x58 C:\Users\20131\AppData\Local\Temp\VMBuilds\new_LMDZ\STM32_genericSTM32F103C\Debug\core.a(usart.c.o)
 .text          0x00000000        0x0 C:\Users\20131\AppData\Local\Temp\VMBuilds\new_LMDZ\STM32_genericSTM32F103C\Debug\core.a(cxxabi-compat.cpp.o)
 .data          0x00000000        0x0 C:\Users\20131\AppData\Local\Temp\VMBuilds\new_LMDZ\STM32_genericSTM32F103C\Debug\core.a(cxxabi-compat.cpp.o)
 .bss           0x00000000        0x0 C:\Users\20131\AppData\Local\Temp\VMBuilds\new_LMDZ\STM32_genericSTM32F103C\Debug\core.a(cxxabi-compat.cpp.o)
 .text.__cxa_pure_virtual
                0x00000000        0x2 C:\Users\20131\AppData\Local\Temp\VMBuilds\new_LMDZ\STM32_genericSTM32F103C\Debug\core.a(cxxabi-compat.cpp.o)
 .data          0x00000000        0x0 c:/users/20131/appdata/local/arduino15/packages/arduino/tools/arm-none-eabi-gcc/4.8.3-2014q1/bin/../lib/gcc/arm-none-eabi/4.8.3/armv7-m\libgcc.a(_arm_addsubdf3.o)
 .bss           0x00000000        0x0 c:/users/20131/appdata/local/arduino15/packages/arduino/tools/arm-none-eabi-gcc/4.8.3-2014q1/bin/../lib/gcc/arm-none-eabi/4.8.3/armv7-m\libgcc.a(_arm_addsubdf3.o)
 .data          0x00000000        0x0 c:/users/20131/appdata/local/arduino15/packages/arduino/tools/arm-none-eabi-gcc/4.8.3-2014q1/bin/../lib/gcc/arm-none-eabi/4.8.3/armv7-m\libgcc.a(_arm_muldivdf3.o)
 .bss           0x00000000        0x0 c:/users/20131/appdata/local/arduino15/packages/arduino/tools/arm-none-eabi-gcc/4.8.3-2014q1/bin/../lib/gcc/arm-none-eabi/4.8.3/armv7-m\libgcc.a(_arm_muldivdf3.o)
 .text          0x00000000      0x110 c:/users/20131/appdata/local/arduino15/packages/arduino/tools/arm-none-eabi-gcc/4.8.3-2014q1/bin/../lib/gcc/arm-none-eabi/4.8.3/armv7-m\libgcc.a(_arm_cmpdf2.o)
 .data          0x00000000        0x0 c:/users/20131/appdata/local/arduino15/packages/arduino/tools/arm-none-eabi-gcc/4.8.3-2014q1/bin/../lib/gcc/arm-none-eabi/4.8.3/armv7-m\libgcc.a(_arm_cmpdf2.o)
 .bss           0x00000000        0x0 c:/users/20131/appdata/local/arduino15/packages/arduino/tools/arm-none-eabi-gcc/4.8.3-2014q1/bin/../lib/gcc/arm-none-eabi/4.8.3/armv7-m\libgcc.a(_arm_cmpdf2.o)
 .text          0x00000000       0x50 c:/users/20131/appdata/local/arduino15/packages/arduino/tools/arm-none-eabi-gcc/4.8.3-2014q1/bin/../lib/gcc/arm-none-eabi/4.8.3/armv7-m\libgcc.a(_arm_fixdfsi.o)
 .data          0x00000000        0x0 c:/users/20131/appdata/local/arduino15/packages/arduino/tools/arm-none-eabi-gcc/4.8.3-2014q1/bin/../lib/gcc/arm-none-eabi/4.8.3/armv7-m\libgcc.a(_arm_fixdfsi.o)
 .bss           0x00000000        0x0 c:/users/20131/appdata/local/arduino15/packages/arduino/tools/arm-none-eabi-gcc/4.8.3-2014q1/bin/../lib/gcc/arm-none-eabi/4.8.3/armv7-m\libgcc.a(_arm_fixdfsi.o)
 .data          0x00000000        0x0 c:/users/20131/appdata/local/arduino15/packages/arduino/tools/arm-none-eabi-gcc/4.8.3-2014q1/bin/../lib/gcc/arm-none-eabi/4.8.3/armv7-m\libgcc.a(_aeabi_uldivmod.o)
 .bss           0x00000000        0x0 c:/users/20131/appdata/local/arduino15/packages/arduino/tools/arm-none-eabi-gcc/4.8.3-2014q1/bin/../lib/gcc/arm-none-eabi/4.8.3/armv7-m\libgcc.a(_aeabi_uldivmod.o)
 .text          0x00000000       0x30 c:/users/20131/appdata/local/arduino15/packages/arduino/tools/arm-none-eabi-gcc/4.8.3-2014q1/bin/../lib/gcc/arm-none-eabi/4.8.3/armv7-m\libgcc.a(_fixdfdi.o)
 .data          0x00000000        0x0 c:/users/20131/appdata/local/arduino15/packages/arduino/tools/arm-none-eabi-gcc/4.8.3-2014q1/bin/../lib/gcc/arm-none-eabi/4.8.3/armv7-m\libgcc.a(_fixdfdi.o)
 .bss           0x00000000        0x0 c:/users/20131/appdata/local/arduino15/packages/arduino/tools/arm-none-eabi-gcc/4.8.3-2014q1/bin/../lib/gcc/arm-none-eabi/4.8.3/armv7-m\libgcc.a(_fixdfdi.o)
 .text          0x00000000       0x44 c:/users/20131/appdata/local/arduino15/packages/arduino/tools/arm-none-eabi-gcc/4.8.3-2014q1/bin/../lib/gcc/arm-none-eabi/4.8.3/armv7-m\libgcc.a(_fixunsdfdi.o)
 .data          0x00000000        0x0 c:/users/20131/appdata/local/arduino15/packages/arduino/tools/arm-none-eabi-gcc/4.8.3-2014q1/bin/../lib/gcc/arm-none-eabi/4.8.3/armv7-m\libgcc.a(_fixunsdfdi.o)
 .bss           0x00000000        0x0 c:/users/20131/appdata/local/arduino15/packages/arduino/tools/arm-none-eabi-gcc/4.8.3-2014q1/bin/../lib/gcc/arm-none-eabi/4.8.3/armv7-m\libgcc.a(_fixunsdfdi.o)
 .data          0x00000000        0x0 c:/users/20131/appdata/local/arduino15/packages/arduino/tools/arm-none-eabi-gcc/4.8.3-2014q1/bin/../lib/gcc/arm-none-eabi/4.8.3/armv7-m\libgcc.a(bpabi.o)
 .bss           0x00000000        0x0 c:/users/20131/appdata/local/arduino15/packages/arduino/tools/arm-none-eabi-gcc/4.8.3-2014q1/bin/../lib/gcc/arm-none-eabi/4.8.3/armv7-m\libgcc.a(bpabi.o)
 .data          0x00000000        0x0 c:/users/20131/appdata/local/arduino15/packages/arduino/tools/arm-none-eabi-gcc/4.8.3-2014q1/bin/../lib/gcc/arm-none-eabi/4.8.3/armv7-m\libgcc.a(_dvmd_tls.o)
 .bss           0x00000000        0x0 c:/users/20131/appdata/local/arduino15/packages/arduino/tools/arm-none-eabi-gcc/4.8.3-2014q1/bin/../lib/gcc/arm-none-eabi/4.8.3/armv7-m\libgcc.a(_dvmd_tls.o)
 .text          0x00000000       0x40 c:/users/20131/appdata/local/arduino15/packages/arduino/tools/arm-none-eabi-gcc/4.8.3-2014q1/bin/../lib/gcc/arm-none-eabi/4.8.3/armv7-m\libgcc.a(_arm_fixunsdfsi.o)
 .data          0x00000000        0x0 c:/users/20131/appdata/local/arduino15/packages/arduino/tools/arm-none-eabi-gcc/4.8.3-2014q1/bin/../lib/gcc/arm-none-eabi/4.8.3/armv7-m\libgcc.a(_arm_fixunsdfsi.o)
 .bss           0x00000000        0x0 c:/users/20131/appdata/local/arduino15/packages/arduino/tools/arm-none-eabi-gcc/4.8.3-2014q1/bin/../lib/gcc/arm-none-eabi/4.8.3/armv7-m\libgcc.a(_arm_fixunsdfsi.o)
 .data          0x00000000        0x0 c:/users/20131/appdata/local/arduino15/packages/arduino/tools/arm-none-eabi-gcc/4.8.3-2014q1/bin/../lib/gcc/arm-none-eabi/4.8.3/armv7-m\libgcc.a(_divdi3.o)
 .bss           0x00000000        0x0 c:/users/20131/appdata/local/arduino15/packages/arduino/tools/arm-none-eabi-gcc/4.8.3-2014q1/bin/../lib/gcc/arm-none-eabi/4.8.3/armv7-m\libgcc.a(_divdi3.o)
 .ARM.extab     0x00000000        0x0 c:/users/20131/appdata/local/arduino15/packages/arduino/tools/arm-none-eabi-gcc/4.8.3-2014q1/bin/../lib/gcc/arm-none-eabi/4.8.3/armv7-m\libgcc.a(_divdi3.o)
 .data          0x00000000        0x0 c:/users/20131/appdata/local/arduino15/packages/arduino/tools/arm-none-eabi-gcc/4.8.3-2014q1/bin/../lib/gcc/arm-none-eabi/4.8.3/armv7-m\libgcc.a(_udivdi3.o)
 .bss           0x00000000        0x0 c:/users/20131/appdata/local/arduino15/packages/arduino/tools/arm-none-eabi-gcc/4.8.3-2014q1/bin/../lib/gcc/arm-none-eabi/4.8.3/armv7-m\libgcc.a(_udivdi3.o)
 .ARM.extab     0x00000000        0x0 c:/users/20131/appdata/local/arduino15/packages/arduino/tools/arm-none-eabi-gcc/4.8.3-2014q1/bin/../lib/gcc/arm-none-eabi/4.8.3/armv7-m\libgcc.a(_udivdi3.o)
 .text          0x00000000        0x0 c:/users/20131/appdata/local/arduino15/packages/arduino/tools/arm-none-eabi-gcc/4.8.3-2014q1/bin/../lib/gcc/arm-none-eabi/4.8.3/../../../../arm-none-eabi/lib/armv7-m\libc.a(lib_a-errno.o)
 .data          0x00000000        0x0 c:/users/20131/appdata/local/arduino15/packages/arduino/tools/arm-none-eabi-gcc/4.8.3-2014q1/bin/../lib/gcc/arm-none-eabi/4.8.3/../../../../arm-none-eabi/lib/armv7-m\libc.a(lib_a-errno.o)
 .bss           0x00000000        0x0 c:/users/20131/appdata/local/arduino15/packages/arduino/tools/arm-none-eabi-gcc/4.8.3-2014q1/bin/../lib/gcc/arm-none-eabi/4.8.3/../../../../arm-none-eabi/lib/armv7-m\libc.a(lib_a-errno.o)
 .text.__errno  0x00000000        0xc c:/users/20131/appdata/local/arduino15/packages/arduino/tools/arm-none-eabi-gcc/4.8.3-2014q1/bin/../lib/gcc/arm-none-eabi/4.8.3/../../../../arm-none-eabi/lib/armv7-m\libc.a(lib_a-errno.o)
 .text          0x00000000        0x0 c:/users/20131/appdata/local/arduino15/packages/arduino/tools/arm-none-eabi-gcc/4.8.3-2014q1/bin/../lib/gcc/arm-none-eabi/4.8.3/../../../../arm-none-eabi/lib/armv7-m\libc.a(lib_a-exit.o)
 .data          0x00000000        0x0 c:/users/20131/appdata/local/arduino15/packages/arduino/tools/arm-none-eabi-gcc/4.8.3-2014q1/bin/../lib/gcc/arm-none-eabi/4.8.3/../../../../arm-none-eabi/lib/armv7-m\libc.a(lib_a-exit.o)
 .bss           0x00000000        0x0 c:/users/20131/appdata/local/arduino15/packages/arduino/tools/arm-none-eabi-gcc/4.8.3-2014q1/bin/../lib/gcc/arm-none-eabi/4.8.3/../../../../arm-none-eabi/lib/armv7-m\libc.a(lib_a-exit.o)
 .text          0x00000000        0x0 c:/users/20131/appdata/local/arduino15/packages/arduino/tools/arm-none-eabi-gcc/4.8.3-2014q1/bin/../lib/gcc/arm-none-eabi/4.8.3/../../../../arm-none-eabi/lib/armv7-m\libc.a(lib_a-impure.o)
 .data          0x00000000        0x0 c:/users/20131/appdata/local/arduino15/packages/arduino/tools/arm-none-eabi-gcc/4.8.3-2014q1/bin/../lib/gcc/arm-none-eabi/4.8.3/../../../../arm-none-eabi/lib/armv7-m\libc.a(lib_a-impure.o)
 .bss           0x00000000        0x0 c:/users/20131/appdata/local/arduino15/packages/arduino/tools/arm-none-eabi-gcc/4.8.3-2014q1/bin/../lib/gcc/arm-none-eabi/4.8.3/../../../../arm-none-eabi/lib/armv7-m\libc.a(lib_a-impure.o)
 .data._impure_ptr
                0x00000000        0x4 c:/users/20131/appdata/local/arduino15/packages/arduino/tools/arm-none-eabi-gcc/4.8.3-2014q1/bin/../lib/gcc/arm-none-eabi/4.8.3/../../../../arm-none-eabi/lib/armv7-m\libc.a(lib_a-impure.o)
 .text          0x00000000        0x0 c:/users/20131/appdata/local/arduino15/packages/arduino/tools/arm-none-eabi-gcc/4.8.3-2014q1/bin/../lib/gcc/arm-none-eabi/4.8.3/../../../../arm-none-eabi/lib/armv7-m\libc.a(lib_a-init.o)
 .data          0x00000000        0x0 c:/users/20131/appdata/local/arduino15/packages/arduino/tools/arm-none-eabi-gcc/4.8.3-2014q1/bin/../lib/gcc/arm-none-eabi/4.8.3/../../../../arm-none-eabi/lib/armv7-m\libc.a(lib_a-init.o)
 .bss           0x00000000        0x0 c:/users/20131/appdata/local/arduino15/packages/arduino/tools/arm-none-eabi-gcc/4.8.3-2014q1/bin/../lib/gcc/arm-none-eabi/4.8.3/../../../../arm-none-eabi/lib/armv7-m\libc.a(lib_a-init.o)
 .text          0x00000000        0x0 c:/users/20131/appdata/local/arduino15/packages/arduino/tools/arm-none-eabi-gcc/4.8.3-2014q1/bin/../lib/gcc/arm-none-eabi/4.8.3/../../../../arm-none-eabi/lib/armv7-m\libc.a(lib_a-memset.o)
 .data          0x00000000        0x0 c:/users/20131/appdata/local/arduino15/packages/arduino/tools/arm-none-eabi-gcc/4.8.3-2014q1/bin/../lib/gcc/arm-none-eabi/4.8.3/../../../../arm-none-eabi/lib/armv7-m\libc.a(lib_a-memset.o)
 .bss           0x00000000        0x0 c:/users/20131/appdata/local/arduino15/packages/arduino/tools/arm-none-eabi-gcc/4.8.3-2014q1/bin/../lib/gcc/arm-none-eabi/4.8.3/../../../../arm-none-eabi/lib/armv7-m\libc.a(lib_a-memset.o)
 .text          0x00000000        0x0 c:/users/20131/appdata/local/arduino15/packages/arduino/tools/arm-none-eabi-gcc/4.8.3-2014q1/bin/../lib/gcc/arm-none-eabi/4.8.3/../../../../arm-none-eabi/lib/armv7-m\libc.a(lib_a-strlen.o)
 .data          0x00000000        0x0 c:/users/20131/appdata/local/arduino15/packages/arduino/tools/arm-none-eabi-gcc/4.8.3-2014q1/bin/../lib/gcc/arm-none-eabi/4.8.3/../../../../arm-none-eabi/lib/armv7-m\libc.a(lib_a-strlen.o)
 .bss           0x00000000        0x0 c:/users/20131/appdata/local/arduino15/packages/arduino/tools/arm-none-eabi-gcc/4.8.3-2014q1/bin/../lib/gcc/arm-none-eabi/4.8.3/../../../../arm-none-eabi/lib/armv7-m\libc.a(lib_a-strlen.o)
 .text          0x00000000        0x0 c:/users/20131/appdata/local/arduino15/packages/arduino/tools/arm-none-eabi-gcc/4.8.3-2014q1/bin/../lib/gcc/arm-none-eabi/4.8.3/../../../../arm-none-eabi/lib/armv7-m\libc.a(lib_a-__call_atexit.o)
 .data          0x00000000        0x0 c:/users/20131/appdata/local/arduino15/packages/arduino/tools/arm-none-eabi-gcc/4.8.3-2014q1/bin/../lib/gcc/arm-none-eabi/4.8.3/../../../../arm-none-eabi/lib/armv7-m\libc.a(lib_a-__call_atexit.o)
 .bss           0x00000000        0x0 c:/users/20131/appdata/local/arduino15/packages/arduino/tools/arm-none-eabi-gcc/4.8.3-2014q1/bin/../lib/gcc/arm-none-eabi/4.8.3/../../../../arm-none-eabi/lib/armv7-m\libc.a(lib_a-__call_atexit.o)
 .text          0x00000000        0x0 c:/users/20131/appdata/local/arduino15/packages/arduino/tools/arm-none-eabi-gcc/4.8.3-2014q1/bin/../lib/gcc/arm-none-eabi/4.8.3/../../../../arm-none-eabi/lib/armv7-m\libc.a(lib_a-atexit.o)
 .data          0x00000000        0x0 c:/users/20131/appdata/local/arduino15/packages/arduino/tools/arm-none-eabi-gcc/4.8.3-2014q1/bin/../lib/gcc/arm-none-eabi/4.8.3/../../../../arm-none-eabi/lib/armv7-m\libc.a(lib_a-atexit.o)
 .bss           0x00000000        0x0 c:/users/20131/appdata/local/arduino15/packages/arduino/tools/arm-none-eabi-gcc/4.8.3-2014q1/bin/../lib/gcc/arm-none-eabi/4.8.3/../../../../arm-none-eabi/lib/armv7-m\libc.a(lib_a-atexit.o)
 .text          0x00000000        0x0 c:/users/20131/appdata/local/arduino15/packages/arduino/tools/arm-none-eabi-gcc/4.8.3-2014q1/bin/../lib/gcc/arm-none-eabi/4.8.3/../../../../arm-none-eabi/lib/armv7-m\libc.a(lib_a-fini.o)
 .data          0x00000000        0x0 c:/users/20131/appdata/local/arduino15/packages/arduino/tools/arm-none-eabi-gcc/4.8.3-2014q1/bin/../lib/gcc/arm-none-eabi/4.8.3/../../../../arm-none-eabi/lib/armv7-m\libc.a(lib_a-fini.o)
 .bss           0x00000000        0x0 c:/users/20131/appdata/local/arduino15/packages/arduino/tools/arm-none-eabi-gcc/4.8.3-2014q1/bin/../lib/gcc/arm-none-eabi/4.8.3/../../../../arm-none-eabi/lib/armv7-m\libc.a(lib_a-fini.o)
 .text          0x00000000        0x0 c:/users/20131/appdata/local/arduino15/packages/arduino/tools/arm-none-eabi-gcc/4.8.3-2014q1/bin/../lib/gcc/arm-none-eabi/4.8.3/../../../../arm-none-eabi/lib/armv7-m\libc.a(lib_a-__atexit.o)
 .data          0x00000000        0x0 c:/users/20131/appdata/local/arduino15/packages/arduino/tools/arm-none-eabi-gcc/4.8.3-2014q1/bin/../lib/gcc/arm-none-eabi/4.8.3/../../../../arm-none-eabi/lib/armv7-m\libc.a(lib_a-__atexit.o)
 .bss           0x00000000        0x0 c:/users/20131/appdata/local/arduino15/packages/arduino/tools/arm-none-eabi-gcc/4.8.3-2014q1/bin/../lib/gcc/arm-none-eabi/4.8.3/../../../../arm-none-eabi/lib/armv7-m\libc.a(lib_a-__atexit.o)
 .text          0x00000000        0x0 c:/users/20131/appdata/local/arduino15/packages/arduino/tools/arm-none-eabi-gcc/4.8.3-2014q1/bin/../lib/gcc/arm-none-eabi/4.8.3/armv7-m/crtend.o
 .data          0x00000000        0x0 c:/users/20131/appdata/local/arduino15/packages/arduino/tools/arm-none-eabi-gcc/4.8.3-2014q1/bin/../lib/gcc/arm-none-eabi/4.8.3/armv7-m/crtend.o
 .bss           0x00000000        0x0 c:/users/20131/appdata/local/arduino15/packages/arduino/tools/arm-none-eabi-gcc/4.8.3-2014q1/bin/../lib/gcc/arm-none-eabi/4.8.3/armv7-m/crtend.o
 .eh_frame      0x00000000        0x4 c:/users/20131/appdata/local/arduino15/packages/arduino/tools/arm-none-eabi-gcc/4.8.3-2014q1/bin/../lib/gcc/arm-none-eabi/4.8.3/armv7-m/crtend.o
 .jcr           0x00000000        0x4 c:/users/20131/appdata/local/arduino15/packages/arduino/tools/arm-none-eabi-gcc/4.8.3-2014q1/bin/../lib/gcc/arm-none-eabi/4.8.3/armv7-m/crtend.o
 .text          0x00000000        0x0 c:/users/20131/appdata/local/arduino15/packages/arduino/tools/arm-none-eabi-gcc/4.8.3-2014q1/bin/../lib/gcc/arm-none-eabi/4.8.3/armv7-m/crtn.o
 .data          0x00000000        0x0 c:/users/20131/appdata/local/arduino15/packages/arduino/tools/arm-none-eabi-gcc/4.8.3-2014q1/bin/../lib/gcc/arm-none-eabi/4.8.3/armv7-m/crtn.o
 .bss           0x00000000        0x0 c:/users/20131/appdata/local/arduino15/packages/arduino/tools/arm-none-eabi-gcc/4.8.3-2014q1/bin/../lib/gcc/arm-none-eabi/4.8.3/armv7-m/crtn.o

Memory Configuration

Name             Origin             Length             Attributes
ram              0x20000000         0x00005000         xrw
rom              0x08000000         0x00020000         xr
*default*        0x00000000         0xffffffff

Linker script and memory map

LOAD c:/users/20131/appdata/local/arduino15/packages/arduino/tools/arm-none-eabi-gcc/4.8.3-2014q1/bin/../lib/gcc/arm-none-eabi/4.8.3/armv7-m/crti.o
LOAD c:/users/20131/appdata/local/arduino15/packages/arduino/tools/arm-none-eabi-gcc/4.8.3-2014q1/bin/../lib/gcc/arm-none-eabi/4.8.3/armv7-m/crtbegin.o
LOAD c:/users/20131/appdata/local/arduino15/packages/arduino/tools/arm-none-eabi-gcc/4.8.3-2014q1/bin/../lib/gcc/arm-none-eabi/4.8.3/../../../../arm-none-eabi/lib/armv7-m/crt0.o
LOAD c:/users/20131/appdata/local/arduino15/packages/arduino/tools/arm-none-eabi-gcc/4.8.3-2014q1/bin/../lib/gcc/arm-none-eabi/4.8.3/armv7-m\libgcc.a
START GROUP
LOAD new_LMDZ.cpp.o
LOAD aveRage.cpp.o
LOAD cmpValues.cpp.o
LOAD draw.cpp.o
LOAD getValue.cpp.o
LOAD quartileDeviation.cpp.o
LOAD rearrange.cpp.o
LOAD valuesPrint.cpp.o
LOAD C:\Users\20131\AppData\Local\Temp\VMBCore\arduino16x\7c3dd42e408ebb1ce4dae06851a5a8aa\variant\board.cpp.o
LOAD C:\Users\20131\AppData\Local\Temp\VMBCore\arduino16x\7c3dd42e408ebb1ce4dae06851a5a8aa\variant\boards.cpp.o
LOAD C:\Users\20131\AppData\Local\Temp\VMBCore\arduino16x\7c3dd42e408ebb1ce4dae06851a5a8aa\variant\boards_setup.cpp.o
LOAD C:\Users\20131\AppData\Local\Temp\VMBCore\arduino16x\7c3dd42e408ebb1ce4dae06851a5a8aa\variant\start.S.o
LOAD C:\Users\20131\AppData\Local\Temp\VMBCore\arduino16x\7c3dd42e408ebb1ce4dae06851a5a8aa\variant\start_c.c.o
LOAD C:\Users\20131\AppData\Local\Temp\VMBCore\arduino16x\7c3dd42e408ebb1ce4dae06851a5a8aa\variant\syscalls.c.o
LOAD C:\Users\20131\AppData\Local\Temp\VMBuilds\new_LMDZ\STM32_genericSTM32F103C\Debug\core.a
END GROUP
LOAD c:/users/20131/appdata/local/arduino15/packages/arduino/tools/arm-none-eabi-gcc/4.8.3-2014q1/bin/../lib/gcc/arm-none-eabi/4.8.3/../../../../arm-none-eabi/lib/armv7-m\libstdc++.a
LOAD c:/users/20131/appdata/local/arduino15/packages/arduino/tools/arm-none-eabi-gcc/4.8.3-2014q1/bin/../lib/gcc/arm-none-eabi/4.8.3/../../../../arm-none-eabi/lib/armv7-m\libm.a
START GROUP
LOAD c:/users/20131/appdata/local/arduino15/packages/arduino/tools/arm-none-eabi-gcc/4.8.3-2014q1/bin/../lib/gcc/arm-none-eabi/4.8.3/armv7-m\libgcc.a
LOAD c:/users/20131/appdata/local/arduino15/packages/arduino/tools/arm-none-eabi-gcc/4.8.3-2014q1/bin/../lib/gcc/arm-none-eabi/4.8.3/../../../../arm-none-eabi/lib/armv7-m\libc.a
END GROUP
LOAD c:/users/20131/appdata/local/arduino15/packages/arduino/tools/arm-none-eabi-gcc/4.8.3-2014q1/bin/../lib/gcc/arm-none-eabi/4.8.3/armv7-m/crtend.o
LOAD c:/users/20131/appdata/local/arduino15/packages/arduino/tools/arm-none-eabi-gcc/4.8.3-2014q1/bin/../lib/gcc/arm-none-eabi/4.8.3/armv7-m/crtn.o
START GROUP
LOAD c:/users/20131/appdata/local/arduino15/packages/arduino/tools/arm-none-eabi-gcc/4.8.3-2014q1/bin/../lib/gcc/arm-none-eabi/4.8.3/armv7-m\libgcc.a
LOAD c:/users/20131/appdata/local/arduino15/packages/arduino/tools/arm-none-eabi-gcc/4.8.3-2014q1/bin/../lib/gcc/arm-none-eabi/4.8.3/../../../../arm-none-eabi/lib/armv7-m\libc.a
LOAD c:/users/20131/appdata/local/arduino15/packages/arduino/tools/arm-none-eabi-gcc/4.8.3-2014q1/bin/../lib/gcc/arm-none-eabi/4.8.3/../../../../arm-none-eabi/lib/armv7-m\libm.a
END GROUP
START GROUP
LOAD c:/users/20131/appdata/local/arduino15/packages/arduino/tools/arm-none-eabi-gcc/4.8.3-2014q1/bin/../lib/gcc/arm-none-eabi/4.8.3/../../../../arm-none-eabi/lib/armv7-m\libnosys.a
END GROUP
                0x20005000                PROVIDE (__msp_init, (ORIGIN (ram) + 0x5000))
                0x080007ec                PROVIDE (__exc_reset, __start__)

.text           0x08000000     0x3c8c
                0x08000000                __text_start__ = .
 *(.stm32.interrupt_vector)
 .stm32.interrupt_vector
                0x08000000       0xec C:\Users\20131\AppData\Local\Temp\VMBuilds\new_LMDZ\STM32_genericSTM32F103C\Debug\core.a(vector_table.S.o)
                0x08000000                __stm32_vector_table
 *(.text .text.* .gnu.linkonce.t.*)
 .text          0x080000ec       0x54 c:/users/20131/appdata/local/arduino15/packages/arduino/tools/arm-none-eabi-gcc/4.8.3-2014q1/bin/../lib/gcc/arm-none-eabi/4.8.3/armv7-m/crtbegin.o
 .text._Z5setupv
                0x08000140       0x34 new_LMDZ.cpp.o
                0x08000140                setup()
 .text._Z4loopv
                0x08000174       0x34 new_LMDZ.cpp.o
                0x08000174                loop()
 .text.startup._GLOBAL__sub_I_sensor1
                0x080001a8       0x1c new_LMDZ.cpp.o
 .text._Z12aveRage_stepP6sensor
                0x080001c4       0x88 aveRage.cpp.o
                0x080001c4                aveRage_step(sensor*)
 .text._Z7aveRageP6sensorS0_
                0x0800024c       0x16 aveRage.cpp.o
                0x0800024c                aveRage(sensor*, sensor*)
 *fill*         0x08000262        0x2 
 .text._Z8getValueP6sensorS0_
                0x08000264       0x68 getValue.cpp.o
                0x08000264                getValue(sensor*, sensor*)
 .text._Z9position1P6sensorP2QD
                0x080002cc       0x48 quartileDeviation.cpp.o
                0x080002cc                position1(sensor*, QD*)
 .text._Z9position2P6sensorP2QD
                0x08000314      0x124 quartileDeviation.cpp.o
                0x08000314                position2(sensor*, QD*)
 .text._Z17quartileDeviationP6sensorS0_
                0x08000438       0x6c quartileDeviation.cpp.o
                0x08000438                quartileDeviation(sensor*, sensor*)
 .text._Z14rearrange_stepP6sensor
                0x080004a4       0x70 rearrange.cpp.o
                0x080004a4                rearrange_step(sensor*)
 .text._Z9rearrangeP6sensorS0_
                0x08000514       0x14 rearrange.cpp.o
                0x08000514                rearrange(sensor*, sensor*)
 .text._Z11stepPrint_aP6sensor
                0x08000528       0x54 valuesPrint.cpp.o
                0x08000528                stepPrint_a(sensor*)
 .text._Z11stepPrint_bP6sensor
                0x0800057c       0x4c valuesPrint.cpp.o
                0x0800057c                stepPrint_b(sensor*)
 .text._Z11valuesPrintP6sensorS0_
                0x080005c8       0x24 valuesPrint.cpp.o
                0x080005c8                valuesPrint(sensor*, sensor*)
 .text._Z9boardInitv
                0x080005ec        0x2 C:\Users\20131\AppData\Local\Temp\VMBCore\arduino16x\7c3dd42e408ebb1ce4dae06851a5a8aa\variant\board.cpp.o
                0x080005ec                boardInit()
 *fill*         0x080005ee        0x2 
 .text.startup._GLOBAL__sub_I__Z9boardInitv
                0x080005f0       0x48 C:\Users\20131\AppData\Local\Temp\VMBCore\arduino16x\7c3dd42e408ebb1ce4dae06851a5a8aa\variant\board.cpp.o
 .text._ZL18adc_default_configP7adc_dev
                0x08000638       0x1c C:\Users\20131\AppData\Local\Temp\VMBCore\arduino16x\7c3dd42e408ebb1ce4dae06851a5a8aa\variant\boards.cpp.o
 .text._ZL20timer_default_configP9timer_dev
                0x08000654       0x9e C:\Users\20131\AppData\Local\Temp\VMBCore\arduino16x\7c3dd42e408ebb1ce4dae06851a5a8aa\variant\boards.cpp.o
 *fill*         0x080006f2        0x2 
 .text._Z4initv
                0x080006f4       0xbc C:\Users\20131\AppData\Local\Temp\VMBCore\arduino16x\7c3dd42e408ebb1ce4dae06851a5a8aa\variant\boards.cpp.o
                0x080006f4                init()
 .text._ZN6wirish4priv15board_reset_pllEv
                0x080007b0        0x2 C:\Users\20131\AppData\Local\Temp\VMBCore\arduino16x\7c3dd42e408ebb1ce4dae06851a5a8aa\variant\boards_setup.cpp.o
                0x080007b0                wirish::priv::board_reset_pll()
 .text._ZN6wirish4priv28board_setup_clock_prescalersEv
                0x080007b2       0x2e C:\Users\20131\AppData\Local\Temp\VMBCore\arduino16x\7c3dd42e408ebb1ce4dae06851a5a8aa\variant\boards_setup.cpp.o
                0x080007b2                wirish::priv::board_setup_clock_prescalers()
 .text._ZN6wirish4priv16board_setup_gpioEv
                0x080007e0        0x4 C:\Users\20131\AppData\Local\Temp\VMBCore\arduino16x\7c3dd42e408ebb1ce4dae06851a5a8aa\variant\boards_setup.cpp.o
                0x080007e0                wirish::priv::board_setup_gpio()
 .text._ZN6wirish4priv15board_setup_usbEv
                0x080007e4        0x2 C:\Users\20131\AppData\Local\Temp\VMBCore\arduino16x\7c3dd42e408ebb1ce4dae06851a5a8aa\variant\boards_setup.cpp.o
                0x080007e4                wirish::priv::board_setup_usb()
 .text._ZN6wirish4priv11series_initEv
                0x080007e6        0x4 C:\Users\20131\AppData\Local\Temp\VMBCore\arduino16x\7c3dd42e408ebb1ce4dae06851a5a8aa\variant\boards_setup.cpp.o
                0x080007e6                wirish::priv::series_init()
 *fill*         0x080007ea        0x2 
 .text          0x080007ec       0x10 C:\Users\20131\AppData\Local\Temp\VMBCore\arduino16x\7c3dd42e408ebb1ce4dae06851a5a8aa\variant\start.S.o
                0x080007ec                __start__
 .text.start_c  0x080007fc       0x64 C:\Users\20131\AppData\Local\Temp\VMBCore\arduino16x\7c3dd42e408ebb1ce4dae06851a5a8aa\variant\start_c.c.o
                0x080007fc                start_c
 .text._exit    0x08000860        0x2 C:\Users\20131\AppData\Local\Temp\VMBCore\arduino16x\7c3dd42e408ebb1ce4dae06851a5a8aa\variant\syscalls.c.o
                0x08000860                _exit
 *fill*         0x08000862        0xe 
 .text          0x08000870       0x60 C:\Users\20131\AppData\Local\Temp\VMBuilds\new_LMDZ\STM32_genericSTM32F103C\Debug\core.a(exc.S.o)
                0x08000870                __exc_nmi
                0x08000874                __exc_hardfault
                0x08000878                __exc_memmanage
                0x0800087c                __exc_busfault
                0x08000880                __exc_usagefault
 .text          0x080008d0        0x2 C:\Users\20131\AppData\Local\Temp\VMBuilds\new_LMDZ\STM32_genericSTM32F103C\Debug\core.a(isrs.S.o)
                0x080008d0                __stm32reservedexception9
                0x080008d0                __exc_debug_monitor
                0x080008d0                __exc_svc
                0x080008d0                __irq_can_rx1
                0x080008d0                __irq_spi2
                0x080008d0                __irq_can_sce
                0x080008d0                __irq_pvd
                0x080008d0                __irq_tamper
                0x080008d0                __default_handler
                0x080008d0                __irq_wwdg
                0x080008d0                __stm32reservedexception10
                0x080008d0                __irq_flash
                0x080008d0                __stm32reservedexception13
                0x080008d0                __irq_rtc
                0x080008d0                __irq_spi1
                0x080008d0                __stm32reservedexception7
                0x080008d0                __irq_usb_hp_can_tx
                0x080008d0                __irq_rtcalarm
                0x080008d0                __stm32reservedexception8
                0x080008d0                __exc_pendsv
                0x080008d0                __irq_usbwakeup
                0x080008d0                __irq_rcc
 .text.adc_init
                0x080008d2       0x14 C:\Users\20131\AppData\Local\Temp\VMBuilds\new_LMDZ\STM32_genericSTM32F103C\Debug\core.a(adc.c.o)
                0x080008d2                adc_init
 .text.adc_set_extsel
                0x080008e6       0x12 C:\Users\20131\AppData\Local\Temp\VMBuilds\new_LMDZ\STM32_genericSTM32F103C\Debug\core.a(adc.c.o)
                0x080008e6                adc_set_extsel
 .text.adc_set_sample_rate
                0x080008f8       0x30 C:\Users\20131\AppData\Local\Temp\VMBuilds\new_LMDZ\STM32_genericSTM32F103C\Debug\core.a(adc.c.o)
                0x080008f8                adc_set_sample_rate
 .text.adc_read
                0x08000928       0x20 C:\Users\20131\AppData\Local\Temp\VMBuilds\new_LMDZ\STM32_genericSTM32F103C\Debug\core.a(adc.c.o)
                0x08000928                adc_read
 .text.__irq_adc
                0x08000948       0x50 C:\Users\20131\AppData\Local\Temp\VMBuilds\new_LMDZ\STM32_genericSTM32F103C\Debug\core.a(adc_f1.c.o)
                0x08000948                __irq_adc
 .text.adc_calibrate
                0x08000998       0x24 C:\Users\20131\AppData\Local\Temp\VMBuilds\new_LMDZ\STM32_genericSTM32F103C\Debug\core.a(adc_f1.c.o)
                0x08000998                adc_calibrate
 .text.adc_set_prescaler
                0x080009bc        0x8 C:\Users\20131\AppData\Local\Temp\VMBuilds\new_LMDZ\STM32_genericSTM32F103C\Debug\core.a(adc_f1.c.o)
                0x080009bc                adc_set_prescaler
 .text.adc_foreach
                0x080009c4       0x1c C:\Users\20131\AppData\Local\Temp\VMBuilds\new_LMDZ\STM32_genericSTM32F103C\Debug\core.a(adc_f1.c.o)
                0x080009c4                adc_foreach
 .text.adc_enable_single_swstart
                0x080009e0       0x36 C:\Users\20131\AppData\Local\Temp\VMBuilds\new_LMDZ\STM32_genericSTM32F103C\Debug\core.a(adc_f1.c.o)
                0x080009e0                adc_enable_single_swstart
 *fill*         0x08000a16        0x2 
 .text.__irq_dma1_channel1
                0x08000a18       0x18 C:\Users\20131\AppData\Local\Temp\VMBuilds\new_LMDZ\STM32_genericSTM32F103C\Debug\core.a(dma_f1.c.o)
                0x08000a18                __irq_dma1_channel1
 .text.__irq_dma1_channel2
                0x08000a30       0x18 C:\Users\20131\AppData\Local\Temp\VMBuilds\new_LMDZ\STM32_genericSTM32F103C\Debug\core.a(dma_f1.c.o)
                0x08000a30                __irq_dma1_channel2
 .text.__irq_dma1_channel3
                0x08000a48       0x1c C:\Users\20131\AppData\Local\Temp\VMBuilds\new_LMDZ\STM32_genericSTM32F103C\Debug\core.a(dma_f1.c.o)
                0x08000a48                __irq_dma1_channel3
 .text.__irq_dma1_channel4
                0x08000a64       0x1c C:\Users\20131\AppData\Local\Temp\VMBuilds\new_LMDZ\STM32_genericSTM32F103C\Debug\core.a(dma_f1.c.o)
                0x08000a64                __irq_dma1_channel4
 .text.__irq_dma1_channel5
                0x08000a80       0x1c C:\Users\20131\AppData\Local\Temp\VMBuilds\new_LMDZ\STM32_genericSTM32F103C\Debug\core.a(dma_f1.c.o)
                0x08000a80                __irq_dma1_channel5
 .text.__irq_dma1_channel6
                0x08000a9c       0x1c C:\Users\20131\AppData\Local\Temp\VMBuilds\new_LMDZ\STM32_genericSTM32F103C\Debug\core.a(dma_f1.c.o)
                0x08000a9c                __irq_dma1_channel6
 .text.__irq_dma1_channel7
                0x08000ab8       0x1c C:\Users\20131\AppData\Local\Temp\VMBuilds\new_LMDZ\STM32_genericSTM32F103C\Debug\core.a(dma_f1.c.o)
                0x08000ab8                __irq_dma1_channel7
 .text.__irq_exti0
                0x08000ad4       0x20 C:\Users\20131\AppData\Local\Temp\VMBuilds\new_LMDZ\STM32_genericSTM32F103C\Debug\core.a(exti.c.o)
                0x08000ad4                __irq_exti0
 .text.__irq_exti1
                0x08000af4       0x20 C:\Users\20131\AppData\Local\Temp\VMBuilds\new_LMDZ\STM32_genericSTM32F103C\Debug\core.a(exti.c.o)
                0x08000af4                __irq_exti1
 .text.__irq_exti2
                0x08000b14       0x20 C:\Users\20131\AppData\Local\Temp\VMBuilds\new_LMDZ\STM32_genericSTM32F103C\Debug\core.a(exti.c.o)
                0x08000b14                __irq_exti2
 .text.__irq_exti3
                0x08000b34       0x20 C:\Users\20131\AppData\Local\Temp\VMBuilds\new_LMDZ\STM32_genericSTM32F103C\Debug\core.a(exti.c.o)
                0x08000b34                __irq_exti3
 .text.__irq_exti4
                0x08000b54       0x20 C:\Users\20131\AppData\Local\Temp\VMBuilds\new_LMDZ\STM32_genericSTM32F103C\Debug\core.a(exti.c.o)
                0x08000b54                __irq_exti4
 .text.__irq_exti9_5
                0x08000b74       0x44 C:\Users\20131\AppData\Local\Temp\VMBuilds\new_LMDZ\STM32_genericSTM32F103C\Debug\core.a(exti.c.o)
                0x08000b74                __irq_exti9_5
 .text.__irq_exti15_10
                0x08000bb8       0x44 C:\Users\20131\AppData\Local\Temp\VMBuilds\new_LMDZ\STM32_genericSTM32F103C\Debug\core.a(exti.c.o)
                0x08000bb8                __irq_exti15_10
 .text.flash_set_latency
                0x08000bfc       0x14 C:\Users\20131\AppData\Local\Temp\VMBuilds\new_LMDZ\STM32_genericSTM32F103C\Debug\core.a(flash.c.o)
                0x08000bfc                flash_set_latency
 .text.gpio_init_all
                0x08000c10       0x30 C:\Users\20131\AppData\Local\Temp\VMBuilds\new_LMDZ\STM32_genericSTM32F103C\Debug\core.a(gpio_f1.c.o)
                0x08000c10                gpio_init_all
 .text.gpio_set_mode
                0x08000c40       0x50 C:\Users\20131\AppData\Local\Temp\VMBuilds\new_LMDZ\STM32_genericSTM32F103C\Debug\core.a(gpio_f1.c.o)
                0x08000c40                gpio_set_mode
 .text.afio_init
                0x08000c90       0x12 C:\Users\20131\AppData\Local\Temp\VMBuilds\new_LMDZ\STM32_genericSTM32F103C\Debug\core.a(gpio_f1.c.o)
                0x08000c90                afio_init
 *fill*         0x08000ca2        0x2 
 .text.__irq_i2c1_ev
                0x08000ca4        0xc C:\Users\20131\AppData\Local\Temp\VMBuilds\new_LMDZ\STM32_genericSTM32F103C\Debug\core.a(i2c_f1.c.o)
                0x08000ca4                __irq_i2c1_ev
 .text.__irq_i2c2_ev
                0x08000cb0        0xc C:\Users\20131\AppData\Local\Temp\VMBuilds\new_LMDZ\STM32_genericSTM32F103C\Debug\core.a(i2c_f1.c.o)
                0x08000cb0                __irq_i2c2_ev
 .text.__irq_i2c1_er
                0x08000cbc        0xc C:\Users\20131\AppData\Local\Temp\VMBuilds\new_LMDZ\STM32_genericSTM32F103C\Debug\core.a(i2c_f1.c.o)
                0x08000cbc                __irq_i2c1_er
 .text.__irq_i2c2_er
                0x08000cc8        0xc C:\Users\20131\AppData\Local\Temp\VMBuilds\new_LMDZ\STM32_genericSTM32F103C\Debug\core.a(i2c_f1.c.o)
                0x08000cc8                __irq_i2c2_er
 .text._i2c_irq_priority_fixup
                0x08000cd4       0x1c C:\Users\20131\AppData\Local\Temp\VMBuilds\new_LMDZ\STM32_genericSTM32F103C\Debug\core.a(i2c_f1.c.o)
                0x08000cd4                _i2c_irq_priority_fixup
 .text.nvic_irq_set_priority
                0x08000cf0       0x28 C:\Users\20131\AppData\Local\Temp\VMBuilds\new_LMDZ\STM32_genericSTM32F103C\Debug\core.a(nvic.c.o)
                0x08000cf0                nvic_irq_set_priority
 .text.nvic_init
                0x08000d18       0x30 C:\Users\20131\AppData\Local\Temp\VMBuilds\new_LMDZ\STM32_genericSTM32F103C\Debug\core.a(nvic.c.o)
                0x08000d18                nvic_init
 .text.rcc_dev_clk
                0x08000d48        0xc C:\Users\20131\AppData\Local\Temp\VMBuilds\new_LMDZ\STM32_genericSTM32F103C\Debug\core.a(rcc.c.o)
                0x08000d48                rcc_dev_clk
 .text.rcc_switch_sysclk
                0x08000d54       0x20 C:\Users\20131\AppData\Local\Temp\VMBuilds\new_LMDZ\STM32_genericSTM32F103C\Debug\core.a(rcc.c.o)
                0x08000d54                rcc_switch_sysclk
 .text.rcc_turn_on_clk
                0x08000d74       0x1a C:\Users\20131\AppData\Local\Temp\VMBuilds\new_LMDZ\STM32_genericSTM32F103C\Debug\core.a(rcc.c.o)
                0x08000d74                rcc_turn_on_clk
 .text.rcc_turn_off_clk
                0x08000d8e       0x1c C:\Users\20131\AppData\Local\Temp\VMBuilds\new_LMDZ\STM32_genericSTM32F103C\Debug\core.a(rcc.c.o)
                0x08000d8e                rcc_turn_off_clk
 .text.rcc_is_clk_on
                0x08000daa       0x1e C:\Users\20131\AppData\Local\Temp\VMBuilds\new_LMDZ\STM32_genericSTM32F103C\Debug\core.a(rcc.c.o)
                0x08000daa                rcc_is_clk_on
 .text.rcc_is_clk_ready
                0x08000dc8       0x18 C:\Users\20131\AppData\Local\Temp\VMBuilds\new_LMDZ\STM32_genericSTM32F103C\Debug\core.a(rcc.c.o)
                0x08000dc8                rcc_is_clk_ready
 .text.rcc_configure_pll
                0x08000de0       0x38 C:\Users\20131\AppData\Local\Temp\VMBuilds\new_LMDZ\STM32_genericSTM32F103C\Debug\core.a(rcc_f1.c.o)
                0x08000de0                rcc_configure_pll
 .text.rcc_clk_enable
                0x08000e18       0x30 C:\Users\20131\AppData\Local\Temp\VMBuilds\new_LMDZ\STM32_genericSTM32F103C\Debug\core.a(rcc_f1.c.o)
                0x08000e18                rcc_clk_enable
 .text.rcc_reset_dev
                0x08000e48       0x34 C:\Users\20131\AppData\Local\Temp\VMBuilds\new_LMDZ\STM32_genericSTM32F103C\Debug\core.a(rcc_f1.c.o)
                0x08000e48                rcc_reset_dev
 .text.rcc_set_prescaler
                0x08000e7c       0x20 C:\Users\20131\AppData\Local\Temp\VMBuilds\new_LMDZ\STM32_genericSTM32F103C\Debug\core.a(rcc_f1.c.o)
                0x08000e7c                rcc_set_prescaler
 .text.rcc_clk_disable
                0x08000e9c       0x30 C:\Users\20131\AppData\Local\Temp\VMBuilds\new_LMDZ\STM32_genericSTM32F103C\Debug\core.a(rcc_f1.c.o)
                0x08000e9c                rcc_clk_disable
 .text.systick_init
                0x08000ecc       0x10 C:\Users\20131\AppData\Local\Temp\VMBuilds\new_LMDZ\STM32_genericSTM32F103C\Debug\core.a(systick.c.o)
                0x08000ecc                systick_init
 .text.__exc_systick
                0x08000edc       0x1c C:\Users\20131\AppData\Local\Temp\VMBuilds\new_LMDZ\STM32_genericSTM32F103C\Debug\core.a(systick.c.o)
                0x08000edc                __exc_systick
 .text.timer_oc_set_mode
                0x08000ef8       0x3a C:\Users\20131\AppData\Local\Temp\VMBuilds\new_LMDZ\STM32_genericSTM32F103C\Debug\core.a(timer.c.o)
 .text.timer_cc_enable
                0x08000f32       0x1c C:\Users\20131\AppData\Local\Temp\VMBuilds\new_LMDZ\STM32_genericSTM32F103C\Debug\core.a(timer.c.o)
 *fill*         0x08000f4e        0x2 
 .text.timer_foreach
                0x08000f50       0x28 C:\Users\20131\AppData\Local\Temp\VMBuilds\new_LMDZ\STM32_genericSTM32F103C\Debug\core.a(timer.c.o)
                0x08000f50                timer_foreach
 .text.timer_init
                0x08000f78       0x14 C:\Users\20131\AppData\Local\Temp\VMBuilds\new_LMDZ\STM32_genericSTM32F103C\Debug\core.a(timer.c.o)
                0x08000f78                timer_init
 .text.timer_has_cc_channel
                0x08000f8c       0x30 C:\Users\20131\AppData\Local\Temp\VMBuilds\new_LMDZ\STM32_genericSTM32F103C\Debug\core.a(timer.c.o)
                0x08000f8c                timer_has_cc_channel
 .text.timer_detach_interrupt
                0x08000fbc       0x1e C:\Users\20131\AppData\Local\Temp\VMBuilds\new_LMDZ\STM32_genericSTM32F103C\Debug\core.a(timer.c.o)
                0x08000fbc                timer_detach_interrupt
 .text.input_capture_mode
                0x08000fda       0x1a C:\Users\20131\AppData\Local\Temp\VMBuilds\new_LMDZ\STM32_genericSTM32F103C\Debug\core.a(timer.c.o)
                0x08000fda                input_capture_mode
 .text.timer_set_mode
                0x08000ff4       0xb8 C:\Users\20131\AppData\Local\Temp\VMBuilds\new_LMDZ\STM32_genericSTM32F103C\Debug\core.a(timer.c.o)
                0x08000ff4                timer_set_mode
 .text.__irq_tim1_brk
                0x080010ac       0x24 C:\Users\20131\AppData\Local\Temp\VMBuilds\new_LMDZ\STM32_genericSTM32F103C\Debug\core.a(timer.c.o)
                0x080010ac                __irq_tim1_brk
 .text.__irq_tim1_up
                0x080010d0       0x24 C:\Users\20131\AppData\Local\Temp\VMBuilds\new_LMDZ\STM32_genericSTM32F103C\Debug\core.a(timer.c.o)
                0x080010d0                __irq_tim1_up
 .text.__irq_tim1_trg_com
                0x080010f4       0x38 C:\Users\20131\AppData\Local\Temp\VMBuilds\new_LMDZ\STM32_genericSTM32F103C\Debug\core.a(timer.c.o)
                0x080010f4                __irq_tim1_trg_com
 .text.__irq_tim1_cc
                0x0800112c       0x54 C:\Users\20131\AppData\Local\Temp\VMBuilds\new_LMDZ\STM32_genericSTM32F103C\Debug\core.a(timer.c.o)
                0x0800112c                __irq_tim1_cc
 .text.__irq_tim2
                0x08001180       0x70 C:\Users\20131\AppData\Local\Temp\VMBuilds\new_LMDZ\STM32_genericSTM32F103C\Debug\core.a(timer.c.o)
                0x08001180                __irq_tim2
 .text.__irq_tim3
                0x080011f0       0x70 C:\Users\20131\AppData\Local\Temp\VMBuilds\new_LMDZ\STM32_genericSTM32F103C\Debug\core.a(timer.c.o)
                0x080011f0                __irq_tim3
 .text.__irq_tim4
                0x08001260       0x70 C:\Users\20131\AppData\Local\Temp\VMBuilds\new_LMDZ\STM32_genericSTM32F103C\Debug\core.a(timer.c.o)
                0x08001260                __irq_tim4
 .text.rb_remove
                0x080012d0       0x24 C:\Users\20131\AppData\Local\Temp\VMBuilds\new_LMDZ\STM32_genericSTM32F103C\Debug\core.a(usart_f1.c.o)
 .text.rb_push_insert
                0x080012f4       0x52 C:\Users\20131\AppData\Local\Temp\VMBuilds\new_LMDZ\STM32_genericSTM32F103C\Debug\core.a(usart_f1.c.o)
 .text.usart_config_gpios_async
                0x08001346       0x4a C:\Users\20131\AppData\Local\Temp\VMBuilds\new_LMDZ\STM32_genericSTM32F103C\Debug\core.a(usart_f1.c.o)
                0x08001346                usart_config_gpios_async
 .text.usart_set_baud_rate
                0x08001390       0x3c C:\Users\20131\AppData\Local\Temp\VMBuilds\new_LMDZ\STM32_genericSTM32F103C\Debug\core.a(usart_f1.c.o)
                0x08001390                usart_set_baud_rate
 .text.__irq_usart1
                0x080013cc       0x54 C:\Users\20131\AppData\Local\Temp\VMBuilds\new_LMDZ\STM32_genericSTM32F103C\Debug\core.a(usart_f1.c.o)
                0x080013cc                __irq_usart1
 .text.__irq_usart2
                0x08001420       0x54 C:\Users\20131\AppData\Local\Temp\VMBuilds\new_LMDZ\STM32_genericSTM32F103C\Debug\core.a(usart_f1.c.o)
                0x08001420                __irq_usart2
 .text.__irq_usart3
                0x08001474       0x54 C:\Users\20131\AppData\Local\Temp\VMBuilds\new_LMDZ\STM32_genericSTM32F103C\Debug\core.a(usart_f1.c.o)
                0x08001474                __irq_usart3
 .text._usart_clock_freq
                0x080014c8       0x24 C:\Users\20131\AppData\Local\Temp\VMBuilds\new_LMDZ\STM32_genericSTM32F103C\Debug\core.a(usart_private.c.o)
                0x080014c8                _usart_clock_freq
 .text.usart_putc
                0x080014ec       0x1c C:\Users\20131\AppData\Local\Temp\VMBuilds\new_LMDZ\STM32_genericSTM32F103C\Debug\core.a(util.c.o)
 .text.usart_putstr
                0x08001508       0x16 C:\Users\20131\AppData\Local\Temp\VMBuilds\new_LMDZ\STM32_genericSTM32F103C\Debug\core.a(util.c.o)
 *fill*         0x0800151e        0x2 
 .text.throb    0x08001520       0x4c C:\Users\20131\AppData\Local\Temp\VMBuilds\new_LMDZ\STM32_genericSTM32F103C\Debug\core.a(util.c.o)
                0x08001520                throb
 .text.__error  0x0800156c       0x14 C:\Users\20131\AppData\Local\Temp\VMBuilds\new_LMDZ\STM32_genericSTM32F103C\Debug\core.a(util.c.o)
                0x0800156c                __error
 .text._fail    0x08001580       0x64 C:\Users\20131\AppData\Local\Temp\VMBuilds\new_LMDZ\STM32_genericSTM32F103C\Debug\core.a(util.c.o)
                0x08001580                _fail
 .text.usb_resume
                0x080015e4       0xb4 C:\Users\20131\AppData\Local\Temp\VMBuilds\new_LMDZ\STM32_genericSTM32F103C\Debug\core.a(usb.c.o)
 .text.__irq_usb_lp_can_rx0
                0x08001698      0x1f0 C:\Users\20131\AppData\Local\Temp\VMBuilds\new_LMDZ\STM32_genericSTM32F103C\Debug\core.a(usb.c.o)
                0x08001698                __irq_usb_lp_can_rx0
 .text.usb_set_ep_rx_stat
                0x08001888       0x22 C:\Users\20131\AppData\Local\Temp\VMBuilds\new_LMDZ\STM32_genericSTM32F103C\Debug\core.a(usb_cdcacm.c.o)
 *fill*         0x080018aa        0x2 
 .text.vcomGetSetLineCoding
                0x080018ac       0x18 C:\Users\20131\AppData\Local\Temp\VMBuilds\new_LMDZ\STM32_genericSTM32F103C\Debug\core.a(usb_cdcacm.c.o)
 .text.usbDataSetup
                0x080018c4       0x54 C:\Users\20131\AppData\Local\Temp\VMBuilds\new_LMDZ\STM32_genericSTM32F103C\Debug\core.a(usb_cdcacm.c.o)
 .text.usbNoDataSetup
                0x08001918       0x50 C:\Users\20131\AppData\Local\Temp\VMBuilds\new_LMDZ\STM32_genericSTM32F103C\Debug\core.a(usb_cdcacm.c.o)
 .text.usbGetInterfaceSetting
                0x08001968       0x10 C:\Users\20131\AppData\Local\Temp\VMBuilds\new_LMDZ\STM32_genericSTM32F103C\Debug\core.a(usb_cdcacm.c.o)
 .text.usbGetStringDescriptor
                0x08001978       0x20 C:\Users\20131\AppData\Local\Temp\VMBuilds\new_LMDZ\STM32_genericSTM32F103C\Debug\core.a(usb_cdcacm.c.o)
 .text.usbGetConfigDescriptor
                0x08001998        0xc C:\Users\20131\AppData\Local\Temp\VMBuilds\new_LMDZ\STM32_genericSTM32F103C\Debug\core.a(usb_cdcacm.c.o)
 .text.usbGetDeviceDescriptor
                0x080019a4        0xc C:\Users\20131\AppData\Local\Temp\VMBuilds\new_LMDZ\STM32_genericSTM32F103C\Debug\core.a(usb_cdcacm.c.o)
 .text.usbInit  0x080019b0       0x44 C:\Users\20131\AppData\Local\Temp\VMBuilds\new_LMDZ\STM32_genericSTM32F103C\Debug\core.a(usb_cdcacm.c.o)
 .text.usbReset
                0x080019f4      0x160 C:\Users\20131\AppData\Local\Temp\VMBuilds\new_LMDZ\STM32_genericSTM32F103C\Debug\core.a(usb_cdcacm.c.o)
 .text.usb_set_ep_rx_count
                0x08001b54       0x40 C:\Users\20131\AppData\Local\Temp\VMBuilds\new_LMDZ\STM32_genericSTM32F103C\Debug\core.a(usb_reg_map.c.o)
                0x08001b54                usb_set_ep_rx_count
 .text.Standard_GetConfiguration
                0x08001b94       0x24 C:\Users\20131\AppData\Local\Temp\VMBuilds\new_LMDZ\STM32_genericSTM32F103C\Debug\core.a(usb_core.c.o)
                0x08001b94                Standard_GetConfiguration
 .text.Standard_GetInterface
                0x08001bb8       0x24 C:\Users\20131\AppData\Local\Temp\VMBuilds\new_LMDZ\STM32_genericSTM32F103C\Debug\core.a(usb_core.c.o)
                0x08001bb8                Standard_GetInterface
 .text.Standard_GetStatus
                0x08001bdc       0x90 C:\Users\20131\AppData\Local\Temp\VMBuilds\new_LMDZ\STM32_genericSTM32F103C\Debug\core.a(usb_core.c.o)
                0x08001bdc                Standard_GetStatus
 .text.DataStageIn
                0x08001c6c       0xa8 C:\Users\20131\AppData\Local\Temp\VMBuilds\new_LMDZ\STM32_genericSTM32F103C\Debug\core.a(usb_core.c.o)
 .text.Standard_SetConfiguration
                0x08001d14       0x38 C:\Users\20131\AppData\Local\Temp\VMBuilds\new_LMDZ\STM32_genericSTM32F103C\Debug\core.a(usb_core.c.o)
                0x08001d14                Standard_SetConfiguration
 .text.Standard_SetInterface
                0x08001d4c       0x48 C:\Users\20131\AppData\Local\Temp\VMBuilds\new_LMDZ\STM32_genericSTM32F103C\Debug\core.a(usb_core.c.o)
                0x08001d4c                Standard_SetInterface
 .text.Standard_ClearFeature
                0x08001d94       0xd0 C:\Users\20131\AppData\Local\Temp\VMBuilds\new_LMDZ\STM32_genericSTM32F103C\Debug\core.a(usb_core.c.o)
                0x08001d94                Standard_ClearFeature
 .text.Standard_SetEndPointFeature
                0x08001e64       0x84 C:\Users\20131\AppData\Local\Temp\VMBuilds\new_LMDZ\STM32_genericSTM32F103C\Debug\core.a(usb_core.c.o)
                0x08001e64                Standard_SetEndPointFeature
 .text.Standard_SetDeviceFeature
                0x08001ee8       0x24 C:\Users\20131\AppData\Local\Temp\VMBuilds\new_LMDZ\STM32_genericSTM32F103C\Debug\core.a(usb_core.c.o)
                0x08001ee8                Standard_SetDeviceFeature
 .text.Standard_GetDescriptorData
                0x08001f0c       0x1c C:\Users\20131\AppData\Local\Temp\VMBuilds\new_LMDZ\STM32_genericSTM32F103C\Debug\core.a(usb_core.c.o)
                0x08001f0c                Standard_GetDescriptorData
 .text.Post0_Process
                0x08001f28       0x40 C:\Users\20131\AppData\Local\Temp\VMBuilds\new_LMDZ\STM32_genericSTM32F103C\Debug\core.a(usb_core.c.o)
                0x08001f28                Post0_Process
 .text.Setup0_Process
                0x08001f68      0x2d0 C:\Users\20131\AppData\Local\Temp\VMBuilds\new_LMDZ\STM32_genericSTM32F103C\Debug\core.a(usb_core.c.o)
                0x08001f68                Setup0_Process
 .text.Out0_Process
                0x08002238       0xc8 C:\Users\20131\AppData\Local\Temp\VMBuilds\new_LMDZ\STM32_genericSTM32F103C\Debug\core.a(usb_core.c.o)
                0x08002238                Out0_Process
 .text.SetDeviceAddress
                0x08002300       0x38 C:\Users\20131\AppData\Local\Temp\VMBuilds\new_LMDZ\STM32_genericSTM32F103C\Debug\core.a(usb_core.c.o)
                0x08002300                SetDeviceAddress
 .text.In0_Process
                0x08002338       0x5c C:\Users\20131\AppData\Local\Temp\VMBuilds\new_LMDZ\STM32_genericSTM32F103C\Debug\core.a(usb_core.c.o)
                0x08002338                In0_Process
 .text.NOP_Process
                0x08002394        0x2 C:\Users\20131\AppData\Local\Temp\VMBuilds\new_LMDZ\STM32_genericSTM32F103C\Debug\core.a(usb_core.c.o)
                0x08002394                NOP_Process
 .text.UserToPMABufferCopy
                0x08002396       0x30 C:\Users\20131\AppData\Local\Temp\VMBuilds\new_LMDZ\STM32_genericSTM32F103C\Debug\core.a(usb_mem.c.o)
                0x08002396                UserToPMABufferCopy
 .text.PMAToUserBufferCopy
                0x080023c6       0x24 C:\Users\20131\AppData\Local\Temp\VMBuilds\new_LMDZ\STM32_genericSTM32F103C\Debug\core.a(usb_mem.c.o)
                0x080023c6                PMAToUserBufferCopy
 .text.SetEPTxStatus
                0x080023ea       0x2a C:\Users\20131\AppData\Local\Temp\VMBuilds\new_LMDZ\STM32_genericSTM32F103C\Debug\core.a(usb_regs.c.o)
                0x080023ea                SetEPTxStatus
 .text.ClearDTOG_RX
                0x08002414       0x20 C:\Users\20131\AppData\Local\Temp\VMBuilds\new_LMDZ\STM32_genericSTM32F103C\Debug\core.a(usb_regs.c.o)
                0x08002414                ClearDTOG_RX
 .text.ClearDTOG_TX
                0x08002434       0x20 C:\Users\20131\AppData\Local\Temp\VMBuilds\new_LMDZ\STM32_genericSTM32F103C\Debug\core.a(usb_regs.c.o)
                0x08002434                ClearDTOG_TX
 .text.GetEPTxAddr
                0x08002454       0x1c C:\Users\20131\AppData\Local\Temp\VMBuilds\new_LMDZ\STM32_genericSTM32F103C\Debug\core.a(usb_regs.c.o)
                0x08002454                GetEPTxAddr
 .text.GetEPRxAddr
                0x08002470       0x1c C:\Users\20131\AppData\Local\Temp\VMBuilds\new_LMDZ\STM32_genericSTM32F103C\Debug\core.a(usb_regs.c.o)
                0x08002470                GetEPRxAddr
 .text.SetEPTxCount
                0x0800248c       0x1c C:\Users\20131\AppData\Local\Temp\VMBuilds\new_LMDZ\STM32_genericSTM32F103C\Debug\core.a(usb_regs.c.o)
                0x0800248c                SetEPTxCount
 .text.SetEPRxCount
                0x080024a8       0x40 C:\Users\20131\AppData\Local\Temp\VMBuilds\new_LMDZ\STM32_genericSTM32F103C\Debug\core.a(usb_regs.c.o)
                0x080024a8                SetEPRxCount
 .text.rb_full_count
                0x080024e8       0x22 C:\Users\20131\AppData\Local\Temp\VMBuilds\new_LMDZ\STM32_genericSTM32F103C\Debug\core.a(HardwareSerial.cpp.o)
 .text._ZN14HardwareSerial4readEv
                0x0800250a       0x3a C:\Users\20131\AppData\Local\Temp\VMBuilds\new_LMDZ\STM32_genericSTM32F103C\Debug\core.a(HardwareSerial.cpp.o)
                0x0800250a                HardwareSerial::read()
 .text._ZN14HardwareSerial9availableEv
                0x08002544        0xc C:\Users\20131\AppData\Local\Temp\VMBuilds\new_LMDZ\STM32_genericSTM32F103C\Debug\core.a(HardwareSerial.cpp.o)
                0x08002544                HardwareSerial::available()
 .text._ZN14HardwareSerial4peekEv
                0x08002550       0x22 C:\Users\20131\AppData\Local\Temp\VMBuilds\new_LMDZ\STM32_genericSTM32F103C\Debug\core.a(HardwareSerial.cpp.o)
                0x08002550                HardwareSerial::peek()
 .text._ZN14HardwareSerial5flushEv
                0x08002572       0x1a C:\Users\20131\AppData\Local\Temp\VMBuilds\new_LMDZ\STM32_genericSTM32F103C\Debug\core.a(HardwareSerial.cpp.o)
                0x08002572                HardwareSerial::flush()
 .text._ZN14HardwareSerial5writeEh
                0x0800258c       0x1e C:\Users\20131\AppData\Local\Temp\VMBuilds\new_LMDZ\STM32_genericSTM32F103C\Debug\core.a(HardwareSerial.cpp.o)
                0x0800258c                HardwareSerial::write(unsigned char)
 *fill*         0x080025aa        0x2 
 .text._ZN14HardwareSerialC2EP9usart_devhh
                0x080025ac       0x1c C:\Users\20131\AppData\Local\Temp\VMBuilds\new_LMDZ\STM32_genericSTM32F103C\Debug\core.a(HardwareSerial.cpp.o)
                0x080025ac                HardwareSerial::HardwareSerial(usart_dev*, unsigned char, unsigned char)
                0x080025ac                HardwareSerial::HardwareSerial(usart_dev*, unsigned char, unsigned char)
 .text._ZN14HardwareSerial5beginEmh
                0x080025c8       0x78 C:\Users\20131\AppData\Local\Temp\VMBuilds\new_LMDZ\STM32_genericSTM32F103C\Debug\core.a(HardwareSerial.cpp.o)
                0x080025c8                HardwareSerial::begin(unsigned long, unsigned char)
 .text._ZN14HardwareSerial5beginEm
                0x08002640        0x6 C:\Users\20131\AppData\Local\Temp\VMBuilds\new_LMDZ\STM32_genericSTM32F103C\Debug\core.a(HardwareSerial.cpp.o)
                0x08002640                HardwareSerial::begin(unsigned long)
 .text.startup._Z7premainv
                0x08002646        0x4 C:\Users\20131\AppData\Local\Temp\VMBuilds\new_LMDZ\STM32_genericSTM32F103C\Debug\core.a(main.cpp.o)
                0x08002646                premain()
 .text.startup.main
                0x0800264a        0xc C:\Users\20131\AppData\Local\Temp\VMBuilds\new_LMDZ\STM32_genericSTM32F103C\Debug\core.a(main.cpp.o)
                0x0800264a                main
 .text._ZN5Print5writeEPKvm
                0x08002656       0x20 C:\Users\20131\AppData\Local\Temp\VMBuilds\new_LMDZ\STM32_genericSTM32F103C\Debug\core.a(Print.cpp.o)
                0x08002656                Print::write(void const*, unsigned long)
 .text._ZN5Print5writeEPKc
                0x08002676       0x1e C:\Users\20131\AppData\Local\Temp\VMBuilds\new_LMDZ\STM32_genericSTM32F103C\Debug\core.a(Print.cpp.o)
                0x08002676                Print::write(char const*)
 .text._ZN5Print5printEc
                0x08002694        0xa C:\Users\20131\AppData\Local\Temp\VMBuilds\new_LMDZ\STM32_genericSTM32F103C\Debug\core.a(Print.cpp.o)
                0x08002694                Print::print(char)
 .text._ZN5Print5printEPKc
                0x0800269e        0xa C:\Users\20131\AppData\Local\Temp\VMBuilds\new_LMDZ\STM32_genericSTM32F103C\Debug\core.a(Print.cpp.o)
                0x0800269e                Print::print(char const*)
 .text._ZN5Print7printlnEv
                0x080026a8       0x18 C:\Users\20131\AppData\Local\Temp\VMBuilds\new_LMDZ\STM32_genericSTM32F103C\Debug\core.a(Print.cpp.o)
                0x080026a8                Print::println()
 .text._ZN5Print7printlnEPKc
                0x080026c0       0x14 C:\Users\20131\AppData\Local\Temp\VMBuilds\new_LMDZ\STM32_genericSTM32F103C\Debug\core.a(Print.cpp.o)
                0x080026c0                Print::println(char const*)
 .text._ZN5Print11printNumberEyh
                0x080026d4       0x84 C:\Users\20131\AppData\Local\Temp\VMBuilds\new_LMDZ\STM32_genericSTM32F103C\Debug\core.a(Print.cpp.o)
                0x080026d4                Print::printNumber(unsigned long long, unsigned char)
 .text._ZN5Print5printExi
                0x08002758       0x32 C:\Users\20131\AppData\Local\Temp\VMBuilds\new_LMDZ\STM32_genericSTM32F103C\Debug\core.a(Print.cpp.o)
                0x08002758                Print::print(long long, int)
 .text._ZN5Print5printEii
                0x0800278a       0x12 C:\Users\20131\AppData\Local\Temp\VMBuilds\new_LMDZ\STM32_genericSTM32F103C\Debug\core.a(Print.cpp.o)
                0x0800278a                Print::print(int, int)
 .text._Z10analogReadh
                0x0800279c       0x1c C:\Users\20131\AppData\Local\Temp\VMBuilds\new_LMDZ\STM32_genericSTM32F103C\Debug\core.a(wirish_analog.cpp.o)
                0x0800279c                analogRead(unsigned char)
 .text._ZL6microsv
                0x080027b8       0x34 C:\Users\20131\AppData\Local\Temp\VMBuilds\new_LMDZ\STM32_genericSTM32F103C\Debug\core.a(wirish_time.cpp.o)
 .text._Z5delaym
                0x080027ec       0x2a C:\Users\20131\AppData\Local\Temp\VMBuilds\new_LMDZ\STM32_genericSTM32F103C\Debug\core.a(wirish_time.cpp.o)
                0x080027ec                delay(unsigned long)
 *fill*         0x08002816        0x2 
 .text._Z7pinModeh13WiringPinMode
                0x08002818       0x84 C:\Users\20131\AppData\Local\Temp\VMBuilds\new_LMDZ\STM32_genericSTM32F103C\Debug\core.a(wirish_digital_f1.cpp.o)
                0x08002818                pinMode(unsigned char, WiringPinMode)
 .text.__empty  0x0800289c        0x2 C:\Users\20131\AppData\Local\Temp\VMBuilds\new_LMDZ\STM32_genericSTM32F103C\Debug\core.a(hooks.c.o)
                0x0800289c                yield
 .text.gpio_init
                0x0800289e       0x14 C:\Users\20131\AppData\Local\Temp\VMBuilds\new_LMDZ\STM32_genericSTM32F103C\Debug\core.a(gpio.c.o)
                0x0800289e                gpio_init
 .text.i2c_start_condition
                0x080028b2       0x14 C:\Users\20131\AppData\Local\Temp\VMBuilds\new_LMDZ\STM32_genericSTM32F103C\Debug\core.a(i2c.c.o)
 .text.i2c_stop_condition
                0x080028c6       0x1c C:\Users\20131\AppData\Local\Temp\VMBuilds\new_LMDZ\STM32_genericSTM32F103C\Debug\core.a(i2c.c.o)
 *fill*         0x080028e2        0x2 
 .text._i2c_irq_handler
                0x080028e4      0x16c C:\Users\20131\AppData\Local\Temp\VMBuilds\new_LMDZ\STM32_genericSTM32F103C\Debug\core.a(i2c.c.o)
                0x080028e4                _i2c_irq_handler
 .text._i2c_irq_error_handler
                0x08002a50       0x2a C:\Users\20131\AppData\Local\Temp\VMBuilds\new_LMDZ\STM32_genericSTM32F103C\Debug\core.a(i2c.c.o)
                0x08002a50                _i2c_irq_error_handler
 *fill*         0x08002a7a        0x2 
 .text.usart_init
                0x08002a7c       0x4c C:\Users\20131\AppData\Local\Temp\VMBuilds\new_LMDZ\STM32_genericSTM32F103C\Debug\core.a(usart.c.o)
                0x08002a7c                usart_init
 .text.usart_enable
                0x08002ac8       0x14 C:\Users\20131\AppData\Local\Temp\VMBuilds\new_LMDZ\STM32_genericSTM32F103C\Debug\core.a(usart.c.o)
                0x08002ac8                usart_enable
 .text.usart_tx
                0x08002adc       0x9c C:\Users\20131\AppData\Local\Temp\VMBuilds\new_LMDZ\STM32_genericSTM32F103C\Debug\core.a(usart.c.o)
                0x08002adc                usart_tx
 .text.usart_putudec
                0x08002b78       0x44 C:\Users\20131\AppData\Local\Temp\VMBuilds\new_LMDZ\STM32_genericSTM32F103C\Debug\core.a(usart.c.o)
                0x08002b78                usart_putudec
 .text          0x08002bbc      0x370 c:/users/20131/appdata/local/arduino15/packages/arduino/tools/arm-none-eabi-gcc/4.8.3-2014q1/bin/../lib/gcc/arm-none-eabi/4.8.3/armv7-m\libgcc.a(_arm_addsubdf3.o)
                0x08002bbc                __aeabi_drsub
                0x08002bc4                __aeabi_dsub
                0x08002bc4                __subdf3
                0x08002bc8                __aeabi_dadd
                0x08002bc8                __adddf3
                0x08002e40                __floatunsidf
                0x08002e40                __aeabi_ui2d
                0x08002e60                __floatsidf
                0x08002e60                __aeabi_i2d
                0x08002e84                __aeabi_f2d
                0x08002e84                __extendsfdf2
                0x08002ec0                __floatundidf
                0x08002ec0                __aeabi_ul2d
                0x08002ed0                __floatdidf
                0x08002ed0                __aeabi_l2d
 .text          0x08002f2c      0x424 c:/users/20131/appdata/local/arduino15/packages/arduino/tools/arm-none-eabi-gcc/4.8.3-2014q1/bin/../lib/gcc/arm-none-eabi/4.8.3/armv7-m\libgcc.a(_arm_muldivdf3.o)
                0x08002f2c                __aeabi_dmul
                0x08002f2c                __muldf3
                0x08003180                __divdf3
                0x08003180                __aeabi_ddiv
 .text          0x08003350       0x2c c:/users/20131/appdata/local/arduino15/packages/arduino/tools/arm-none-eabi-gcc/4.8.3-2014q1/bin/../lib/gcc/arm-none-eabi/4.8.3/armv7-m\libgcc.a(_aeabi_uldivmod.o)
                0x08003350                __aeabi_uldivmod
 .text          0x0800337c       0x60 c:/users/20131/appdata/local/arduino15/packages/arduino/tools/arm-none-eabi-gcc/4.8.3-2014q1/bin/../lib/gcc/arm-none-eabi/4.8.3/armv7-m\libgcc.a(bpabi.o)
                0x0800337c                __gnu_ldivmod_helper
                0x080033ac                __gnu_uldivmod_helper
 .text          0x080033dc        0x4 c:/users/20131/appdata/local/arduino15/packages/arduino/tools/arm-none-eabi-gcc/4.8.3-2014q1/bin/../lib/gcc/arm-none-eabi/4.8.3/armv7-m\libgcc.a(_dvmd_tls.o)
                0x080033dc                __aeabi_idiv0
                0x080033dc                __aeabi_ldiv0
 .text          0x080033e0      0x2a0 c:/users/20131/appdata/local/arduino15/packages/arduino/tools/arm-none-eabi-gcc/4.8.3-2014q1/bin/../lib/gcc/arm-none-eabi/4.8.3/armv7-m\libgcc.a(_divdi3.o)
                0x080033e0                __divdi3
 .text          0x08003680      0x290 c:/users/20131/appdata/local/arduino15/packages/arduino/tools/arm-none-eabi-gcc/4.8.3-2014q1/bin/../lib/gcc/arm-none-eabi/4.8.3/armv7-m\libgcc.a(_udivdi3.o)
                0x08003680                __udivdi3
 .text.exit     0x08003910       0x20 c:/users/20131/appdata/local/arduino15/packages/arduino/tools/arm-none-eabi-gcc/4.8.3-2014q1/bin/../lib/gcc/arm-none-eabi/4.8.3/../../../../arm-none-eabi/lib/armv7-m\libc.a(lib_a-exit.o)
                0x08003910                exit
 .text.__libc_init_array
                0x08003930       0x50 c:/users/20131/appdata/local/arduino15/packages/arduino/tools/arm-none-eabi-gcc/4.8.3-2014q1/bin/../lib/gcc/arm-none-eabi/4.8.3/../../../../arm-none-eabi/lib/armv7-m\libc.a(lib_a-init.o)
                0x08003930                __libc_init_array
 .text.memset   0x08003980       0x94 c:/users/20131/appdata/local/arduino15/packages/arduino/tools/arm-none-eabi-gcc/4.8.3-2014q1/bin/../lib/gcc/arm-none-eabi/4.8.3/../../../../arm-none-eabi/lib/armv7-m\libc.a(lib_a-memset.o)
                0x08003980                memset
 .text.strlen   0x08003a14       0x60 c:/users/20131/appdata/local/arduino15/packages/arduino/tools/arm-none-eabi-gcc/4.8.3-2014q1/bin/../lib/gcc/arm-none-eabi/4.8.3/../../../../arm-none-eabi/lib/armv7-m\libc.a(lib_a-strlen.o)
                0x08003a14                strlen
 .text.startup.register_fini
                0x08003a74       0x14 c:/users/20131/appdata/local/arduino15/packages/arduino/tools/arm-none-eabi-gcc/4.8.3-2014q1/bin/../lib/gcc/arm-none-eabi/4.8.3/../../../../arm-none-eabi/lib/armv7-m\libc.a(lib_a-__call_atexit.o)
 .text.__call_exitprocs
                0x08003a88       0xf0 c:/users/20131/appdata/local/arduino15/packages/arduino/tools/arm-none-eabi-gcc/4.8.3-2014q1/bin/../lib/gcc/arm-none-eabi/4.8.3/../../../../arm-none-eabi/lib/armv7-m\libc.a(lib_a-__call_atexit.o)
                0x08003a88                __call_exitprocs
 .text.atexit   0x08003b78        0xc c:/users/20131/appdata/local/arduino15/packages/arduino/tools/arm-none-eabi-gcc/4.8.3-2014q1/bin/../lib/gcc/arm-none-eabi/4.8.3/../../../../arm-none-eabi/lib/armv7-m\libc.a(lib_a-atexit.o)
                0x08003b78                atexit
 .text.__libc_fini_array
                0x08003b84       0x30 c:/users/20131/appdata/local/arduino15/packages/arduino/tools/arm-none-eabi-gcc/4.8.3-2014q1/bin/../lib/gcc/arm-none-eabi/4.8.3/../../../../arm-none-eabi/lib/armv7-m\libc.a(lib_a-fini.o)
                0x08003b84                __libc_fini_array
 .text.__register_exitproc
                0x08003bb4       0xa8 c:/users/20131/appdata/local/arduino15/packages/arduino/tools/arm-none-eabi-gcc/4.8.3-2014q1/bin/../lib/gcc/arm-none-eabi/4.8.3/../../../../arm-none-eabi/lib/armv7-m\libc.a(lib_a-__atexit.o)
                0x08003bb4                __register_exitproc
 *(.plt)
 *(.gnu.warning)
 *(.glue_7t)
 .glue_7t       0x00000000        0x0 linker stubs
 *(.glue_7)
 .glue_7        0x00000000        0x0 linker stubs
 *(.vfp11_veneer)
 .vfp11_veneer  0x00000000        0x0 linker stubs
 *(.ARM.extab* .gnu.linkonce.armextab.*)
 *(.gcc_except_table)
 *(.eh_frame_hdr)
 *(.eh_frame)
 .eh_frame      0x08003c5c        0x0 c:/users/20131/appdata/local/arduino15/packages/arduino/tools/arm-none-eabi-gcc/4.8.3-2014q1/bin/../lib/gcc/arm-none-eabi/4.8.3/armv7-m/crtbegin.o
                0x08003c5c                . = ALIGN (0x4)
 *(.init)
 .init          0x08003c5c        0x4 c:/users/20131/appdata/local/arduino15/packages/arduino/tools/arm-none-eabi-gcc/4.8.3-2014q1/bin/../lib/gcc/arm-none-eabi/4.8.3/armv7-m/crti.o
                0x08003c5c                _init
 .init          0x08003c60        0x8 c:/users/20131/appdata/local/arduino15/packages/arduino/tools/arm-none-eabi-gcc/4.8.3-2014q1/bin/../lib/gcc/arm-none-eabi/4.8.3/armv7-m/crtn.o
                0x08003c68                . = ALIGN (0x4)
                0x08003c68                __preinit_array_start = .
 *(.preinit_array)
                0x08003c68                __preinit_array_end = .
                0x08003c68                . = ALIGN (0x4)
                0x08003c68                __init_array_start = .
 *(SORT(.init_array.*))
 .init_array.00000
                0x08003c68        0x4 c:/users/20131/appdata/local/arduino15/packages/arduino/tools/arm-none-eabi-gcc/4.8.3-2014q1/bin/../lib/gcc/arm-none-eabi/4.8.3/../../../../arm-none-eabi/lib/armv7-m\libc.a(lib_a-__call_atexit.o)
 .init_array.00101
                0x08003c6c        0x4 C:\Users\20131\AppData\Local\Temp\VMBuilds\new_LMDZ\STM32_genericSTM32F103C\Debug\core.a(main.cpp.o)
 *(.init_array)
 .init_array    0x08003c70        0x4 c:/users/20131/appdata/local/arduino15/packages/arduino/tools/arm-none-eabi-gcc/4.8.3-2014q1/bin/../lib/gcc/arm-none-eabi/4.8.3/armv7-m/crtbegin.o
 .init_array    0x08003c74        0x4 new_LMDZ.cpp.o
 .init_array    0x08003c78        0x4 C:\Users\20131\AppData\Local\Temp\VMBCore\arduino16x\7c3dd42e408ebb1ce4dae06851a5a8aa\variant\board.cpp.o
                0x08003c7c                __init_array_end = .
                0x08003c7c                . = ALIGN (0x4)
 *crtbegin.o(.ctors)
 *(EXCLUDE_FILE(*crtend.o) .ctors)
 *(SORT(.ctors.*))
 *crtend.o(.ctors)
                0x08003c7c                . = ALIGN (0x4)
 *(.fini)
 .fini          0x08003c7c        0x4 c:/users/20131/appdata/local/arduino15/packages/arduino/tools/arm-none-eabi-gcc/4.8.3-2014q1/bin/../lib/gcc/arm-none-eabi/4.8.3/armv7-m/crti.o
                0x08003c7c                _fini
 .fini          0x08003c80        0x8 c:/users/20131/appdata/local/arduino15/packages/arduino/tools/arm-none-eabi-gcc/4.8.3-2014q1/bin/../lib/gcc/arm-none-eabi/4.8.3/armv7-m/crtn.o
                0x08003c88                . = ALIGN (0x4)
                0x08003c88                __fini_array_start = .
 *(.fini_array)
 .fini_array    0x08003c88        0x4 c:/users/20131/appdata/local/arduino15/packages/arduino/tools/arm-none-eabi-gcc/4.8.3-2014q1/bin/../lib/gcc/arm-none-eabi/4.8.3/armv7-m/crtbegin.o
 *(SORT(.fini_array.*))
                0x08003c8c                __fini_array_end = .
 *crtbegin.o(.dtors)
 *(EXCLUDE_FILE(*crtend.o) .dtors)
 *(SORT(.dtors.*))
 *crtend.o(.dtors)

.v4_bx          0x08003c8c        0x0
 .v4_bx         0x00000000        0x0 linker stubs

.iplt           0x08003c8c        0x0
 .iplt          0x00000000        0x0 c:/users/20131/appdata/local/arduino15/packages/arduino/tools/arm-none-eabi-gcc/4.8.3-2014q1/bin/../lib/gcc/arm-none-eabi/4.8.3/armv7-m/crtbegin.o

.text.align     0x08003c8c        0x4
                0x08003c90                . = ALIGN (0x8)
 *fill*         0x08003c8c        0x4 
                0x08003c90                __text_end__ = .
                0x08003c90                __exidx_start = .

.ARM.exidx      0x08003c90        0x8
 *(.ARM.exidx* .gnu.linkonce.armexidx.*)
 .ARM.exidx     0x08003c90        0x8 C:\Users\20131\AppData\Local\Temp\VMBCore\arduino16x\7c3dd42e408ebb1ce4dae06851a5a8aa\variant\start.S.o
 .ARM.exidx     0x08003c98        0x0 c:/users/20131/appdata/local/arduino15/packages/arduino/tools/arm-none-eabi-gcc/4.8.3-2014q1/bin/../lib/gcc/arm-none-eabi/4.8.3/armv7-m\libgcc.a(_divdi3.o)
                                  0x8 (size before relaxing)
 .ARM.exidx     0x08003c98        0x0 c:/users/20131/appdata/local/arduino15/packages/arduino/tools/arm-none-eabi-gcc/4.8.3-2014q1/bin/../lib/gcc/arm-none-eabi/4.8.3/armv7-m\libgcc.a(_udivdi3.o)
                                  0x8 (size before relaxing)
                0x08003c98                __exidx_end = .

.data           0x20000000      0xb60 load address 0x08003c98
                0x20000000                __data_start__ = .
                0x20000000        0x4 LONG 0x0
                0x20000008                . = ALIGN (0x8)
 *fill*         0x20000004        0x4 
 *(.got.plt)
 *(.got)
 *(.data .data.* .gnu.linkonce.d.*)
 .data.sensor1  0x20000008      0x350 new_LMDZ.cpp.o
                0x20000008                sensor1
 .data.length   0x20000358        0x4 new_LMDZ.cpp.o
                0x20000358                length
 .data._ZN6wirish4privL8pll_dataE
                0x2000035c        0x4 C:\Users\20131\AppData\Local\Temp\VMBCore\arduino16x\7c3dd42e408ebb1ce4dae06851a5a8aa\variant\boards_setup.cpp.o
 .data._ZN6wirish4priv9w_adc_smpE
                0x20000360        0x1 C:\Users\20131\AppData\Local\Temp\VMBCore\arduino16x\7c3dd42e408ebb1ce4dae06851a5a8aa\variant\boards_setup.cpp.o
                0x20000360                wirish::priv::w_adc_smp
 *fill*         0x20000361        0x1 
 .data._ZN6wirish4priv9w_adc_preE
                0x20000362        0x2 C:\Users\20131\AppData\Local\Temp\VMBCore\arduino16x\7c3dd42e408ebb1ce4dae06851a5a8aa\variant\boards_setup.cpp.o
                0x20000362                wirish::priv::w_adc_pre
 .data._ZN6wirish4priv15w_board_pll_cfgE
                0x20000364        0x8 C:\Users\20131\AppData\Local\Temp\VMBCore\arduino16x\7c3dd42e408ebb1ce4dae06851a5a8aa\variant\boards_setup.cpp.o
                0x20000364                wirish::priv::w_board_pll_cfg
 .data.adc2     0x2000036c        0x8 C:\Users\20131\AppData\Local\Temp\VMBuilds\new_LMDZ\STM32_genericSTM32F103C\Debug\core.a(adc_f1.c.o)
                0x2000036c                adc2
 .data.adc1     0x20000374       0x18 C:\Users\20131\AppData\Local\Temp\VMBuilds\new_LMDZ\STM32_genericSTM32F103C\Debug\core.a(adc_f1.c.o)
                0x20000374                adc1
 .data.ADC2     0x2000038c        0x4 C:\Users\20131\AppData\Local\Temp\VMBuilds\new_LMDZ\STM32_genericSTM32F103C\Debug\core.a(adc_f1.c.o)
                0x2000038c                ADC2
 .data.ADC1     0x20000390        0x4 C:\Users\20131\AppData\Local\Temp\VMBuilds\new_LMDZ\STM32_genericSTM32F103C\Debug\core.a(adc_f1.c.o)
                0x20000390                ADC1
 .data.dma1     0x20000394       0x40 C:\Users\20131\AppData\Local\Temp\VMBuilds\new_LMDZ\STM32_genericSTM32F103C\Debug\core.a(dma_f1.c.o)
 .data.DMA1     0x200003d4        0x4 C:\Users\20131\AppData\Local\Temp\VMBuilds\new_LMDZ\STM32_genericSTM32F103C\Debug\core.a(dma_f1.c.o)
                0x200003d4                DMA1
 .data.gpioa    0x200003d8        0x8 C:\Users\20131\AppData\Local\Temp\VMBuilds\new_LMDZ\STM32_genericSTM32F103C\Debug\core.a(gpio_f1.c.o)
                0x200003d8                gpioa
 .data.gpiob    0x200003e0        0x8 C:\Users\20131\AppData\Local\Temp\VMBuilds\new_LMDZ\STM32_genericSTM32F103C\Debug\core.a(gpio_f1.c.o)
                0x200003e0                gpiob
 .data.gpioc    0x200003e8        0x8 C:\Users\20131\AppData\Local\Temp\VMBuilds\new_LMDZ\STM32_genericSTM32F103C\Debug\core.a(gpio_f1.c.o)
                0x200003e8                gpioc
 .data.gpiod    0x200003f0        0x8 C:\Users\20131\AppData\Local\Temp\VMBuilds\new_LMDZ\STM32_genericSTM32F103C\Debug\core.a(gpio_f1.c.o)
                0x200003f0                gpiod
 .data.i2c1     0x200003f8       0x24 C:\Users\20131\AppData\Local\Temp\VMBuilds\new_LMDZ\STM32_genericSTM32F103C\Debug\core.a(i2c_f1.c.o)
 .data.i2c2     0x2000041c       0x24 C:\Users\20131\AppData\Local\Temp\VMBuilds\new_LMDZ\STM32_genericSTM32F103C\Debug\core.a(i2c_f1.c.o)
 .data.enable_regs.4411
                0x20000440        0xc C:\Users\20131\AppData\Local\Temp\VMBuilds\new_LMDZ\STM32_genericSTM32F103C\Debug\core.a(rcc_f1.c.o)
 .data.reset_regs.4415
                0x2000044c        0x8 C:\Users\20131\AppData\Local\Temp\VMBuilds\new_LMDZ\STM32_genericSTM32F103C\Debug\core.a(rcc_f1.c.o)
 .data.enable_regs.4424
                0x20000454        0xc C:\Users\20131\AppData\Local\Temp\VMBuilds\new_LMDZ\STM32_genericSTM32F103C\Debug\core.a(rcc_f1.c.o)
 .data.timer3   0x20000460       0x24 C:\Users\20131\AppData\Local\Temp\VMBuilds\new_LMDZ\STM32_genericSTM32F103C\Debug\core.a(timer.c.o)
                0x20000460                timer3
 .data.timer4   0x20000484       0x24 C:\Users\20131\AppData\Local\Temp\VMBuilds\new_LMDZ\STM32_genericSTM32F103C\Debug\core.a(timer.c.o)
                0x20000484                timer4
 .data.timer1   0x200004a8       0x28 C:\Users\20131\AppData\Local\Temp\VMBuilds\new_LMDZ\STM32_genericSTM32F103C\Debug\core.a(timer.c.o)
                0x200004a8                timer1
 .data.timer2   0x200004d0       0x24 C:\Users\20131\AppData\Local\Temp\VMBuilds\new_LMDZ\STM32_genericSTM32F103C\Debug\core.a(timer.c.o)
                0x200004d0                timer2
 .data.USART1   0x200004f4        0x4 C:\Users\20131\AppData\Local\Temp\VMBuilds\new_LMDZ\STM32_genericSTM32F103C\Debug\core.a(usart_f1.c.o)
                0x200004f4                USART1
 .data.USART2   0x200004f8        0x4 C:\Users\20131\AppData\Local\Temp\VMBuilds\new_LMDZ\STM32_genericSTM32F103C\Debug\core.a(usart_f1.c.o)
                0x200004f8                USART2
 .data.USART3   0x200004fc        0x4 C:\Users\20131\AppData\Local\Temp\VMBuilds\new_LMDZ\STM32_genericSTM32F103C\Debug\core.a(usart_f1.c.o)
                0x200004fc                USART3
 .data.usart1   0x20000500       0x94 C:\Users\20131\AppData\Local\Temp\VMBuilds\new_LMDZ\STM32_genericSTM32F103C\Debug\core.a(usart_f1.c.o)
 .data.usart2   0x20000594       0x94 C:\Users\20131\AppData\Local\Temp\VMBuilds\new_LMDZ\STM32_genericSTM32F103C\Debug\core.a(usart_f1.c.o)
 .data.usart3   0x20000628       0x94 C:\Users\20131\AppData\Local\Temp\VMBuilds\new_LMDZ\STM32_genericSTM32F103C\Debug\core.a(usart_f1.c.o)
 .data.USBLIB   0x200006bc        0x4 C:\Users\20131\AppData\Local\Temp\VMBuilds\new_LMDZ\STM32_genericSTM32F103C\Debug\core.a(usb.c.o)
                0x200006bc                USBLIB
 .data.usblib   0x200006c0       0x10 C:\Users\20131\AppData\Local\Temp\VMBuilds\new_LMDZ\STM32_genericSTM32F103C\Debug\core.a(usb.c.o)
 .data.Config_Descriptor
                0x200006d0        0x8 C:\Users\20131\AppData\Local\Temp\VMBuilds\new_LMDZ\STM32_genericSTM32F103C\Debug\core.a(usb_cdcacm.c.o)
 .data.Device_Property
                0x200006d8       0x30 C:\Users\20131\AppData\Local\Temp\VMBuilds\new_LMDZ\STM32_genericSTM32F103C\Debug\core.a(usb_cdcacm.c.o)
                0x200006d8                Device_Property
 .data.String_Descriptor
                0x20000708       0x18 C:\Users\20131\AppData\Local\Temp\VMBuilds\new_LMDZ\STM32_genericSTM32F103C\Debug\core.a(usb_cdcacm.c.o)
 .data.line_coding
                0x20000720        0x7 C:\Users\20131\AppData\Local\Temp\VMBuilds\new_LMDZ\STM32_genericSTM32F103C\Debug\core.a(usb_cdcacm.c.o)
 *fill*         0x20000727        0x1 
 .data.Device_Descriptor
                0x20000728        0x8 C:\Users\20131\AppData\Local\Temp\VMBuilds\new_LMDZ\STM32_genericSTM32F103C\Debug\core.a(usb_cdcacm.c.o)
 .data.Device_Table
                0x20000730        0x2 C:\Users\20131\AppData\Local\Temp\VMBuilds\new_LMDZ\STM32_genericSTM32F103C\Debug\core.a(usb_cdcacm.c.o)
                0x20000730                Device_Table
 *fill*         0x20000732        0x6 
 .data.impure_data
                0x20000738      0x428 c:/users/20131/appdata/local/arduino15/packages/arduino/tools/arm-none-eabi-gcc/4.8.3-2014q1/bin/../lib/gcc/arm-none-eabi/4.8.3/../../../../arm-none-eabi/lib/armv7-m\libc.a(lib_a-impure.o)
                0x20000b60                . = ALIGN (0x8)
                0x20000b60                __data_end__ = .

.jcr            0x20000b60        0x0 load address 0x080047f8
 .jcr           0x20000b60        0x0 c:/users/20131/appdata/local/arduino15/packages/arduino/tools/arm-none-eabi-gcc/4.8.3-2014q1/bin/../lib/gcc/arm-none-eabi/4.8.3/armv7-m/crtbegin.o

.igot.plt       0x20000b60        0x0 load address 0x080047f8
 .igot.plt      0x00000000        0x0 c:/users/20131/appdata/local/arduino15/packages/arduino/tools/arm-none-eabi-gcc/4.8.3-2014q1/bin/../lib/gcc/arm-none-eabi/4.8.3/armv7-m/crtbegin.o

.rodata         0x080047f8      0x4fc
 *(.rodata .rodata.* .gnu.linkonce.r.*)
 .rodata.str1.1
                0x080047f8       0x19 valuesPrint.cpp.o
 *fill*         0x08004811        0x3 
 .rodata.PIN_MAP
                0x08004814      0x230 C:\Users\20131\AppData\Local\Temp\VMBCore\arduino16x\7c3dd42e408ebb1ce4dae06851a5a8aa\variant\board.cpp.o
                0x08004814                PIN_MAP
 .rodata.GPIOC  0x08004a44        0x4 C:\Users\20131\AppData\Local\Temp\VMBuilds\new_LMDZ\STM32_genericSTM32F103C\Debug\core.a(gpio_f1.c.o)
                0x08004a44                GPIOC
 .rodata.str1.1
                0x08004a48       0x70 C:\Users\20131\AppData\Local\Temp\VMBuilds\new_LMDZ\STM32_genericSTM32F103C\Debug\core.a(rcc_f1.c.o)
 .rodata.rcc_dev_table
                0x08004ab8       0x5c C:\Users\20131\AppData\Local\Temp\VMBuilds\new_LMDZ\STM32_genericSTM32F103C\Debug\core.a(rcc_f1.c.o)
                0x08004ab8                rcc_dev_table
 .rodata.masks.4420
                0x08004b14       0x14 C:\Users\20131\AppData\Local\Temp\VMBuilds\new_LMDZ\STM32_genericSTM32F103C\Debug\core.a(rcc_f1.c.o)
 .rodata.str1.1
                0x08004b28       0x71 C:\Users\20131\AppData\Local\Temp\VMBuilds\new_LMDZ\STM32_genericSTM32F103C\Debug\core.a(timer.c.o)
 .rodata.str1.1
                0x08004b99       0x3f C:\Users\20131\AppData\Local\Temp\VMBuilds\new_LMDZ\STM32_genericSTM32F103C\Debug\core.a(util.c.o)
                                 0x42 (size before relaxing)
 .rodata.str1.1
                0x08004bd8       0x71 C:\Users\20131\AppData\Local\Temp\VMBuilds\new_LMDZ\STM32_genericSTM32F103C\Debug\core.a(usb.c.o)
 .rodata.usbVcomDescriptor_iProduct
                0x08004c49        0xc C:\Users\20131\AppData\Local\Temp\VMBuilds\new_LMDZ\STM32_genericSTM32F103C\Debug\core.a(usb_cdcacm.c.o)
 .rodata.usbVcomDescriptor_iManufacturer
                0x08004c55       0x12 C:\Users\20131\AppData\Local\Temp\VMBuilds\new_LMDZ\STM32_genericSTM32F103C\Debug\core.a(usb_cdcacm.c.o)
 .rodata.usbVcomDescriptor_Device
                0x08004c67       0x12 C:\Users\20131\AppData\Local\Temp\VMBuilds\new_LMDZ\STM32_genericSTM32F103C\Debug\core.a(usb_cdcacm.c.o)
 .rodata.usbVcomDescriptor_Config
                0x08004c79       0x43 C:\Users\20131\AppData\Local\Temp\VMBuilds\new_LMDZ\STM32_genericSTM32F103C\Debug\core.a(usb_cdcacm.c.o)
 .rodata.usbVcomDescriptor_LangID
                0x08004cbc        0x4 C:\Users\20131\AppData\Local\Temp\VMBuilds\new_LMDZ\STM32_genericSTM32F103C\Debug\core.a(usb_cdcacm.c.o)
 .rodata._ZTV14HardwareSerial
                0x08004cc0       0x28 C:\Users\20131\AppData\Local\Temp\VMBuilds\new_LMDZ\STM32_genericSTM32F103C\Debug\core.a(HardwareSerial.cpp.o)
                0x08004cc0                vtable for HardwareSerial
 .rodata.str1.4
                0x08004ce8        0x4 c:/users/20131/appdata/local/arduino15/packages/arduino/tools/arm-none-eabi-gcc/4.8.3-2014q1/bin/../lib/gcc/arm-none-eabi/4.8.3/../../../../arm-none-eabi/lib/armv7-m\libc.a(lib_a-impure.o)
 .rodata._global_impure_ptr
                0x08004cec        0x4 c:/users/20131/appdata/local/arduino15/packages/arduino/tools/arm-none-eabi-gcc/4.8.3-2014q1/bin/../lib/gcc/arm-none-eabi/4.8.3/../../../../arm-none-eabi/lib/armv7-m\libc.a(lib_a-impure.o)
                0x08004cec                _global_impure_ptr
 *(.USER_FLASH)
                0x08004cf0                . = ALIGN (0x4)
                0x08004cf0                _lm_rom_img_cfgp = .
                0x08004cf0        0x4 LONG 0x8003c98 LOADADDR (.data)
                0x20000cf8                _lm_heap_start = DEFINED (_lm_heap_start)?_lm_heap_start:_end
                0x20005000                _lm_heap_end = DEFINED (_lm_heap_end)?_lm_heap_end:__msp_init

.rel.dyn        0x08004cf4        0x0
 .rel.iplt      0x00000000        0x0 c:/users/20131/appdata/local/arduino15/packages/arduino/tools/arm-none-eabi-gcc/4.8.3-2014q1/bin/../lib/gcc/arm-none-eabi/4.8.3/armv7-m/crtbegin.o

.bss            0x20000b60      0x198
                0x20000b60                . = ALIGN (0x8)
                0x20000b60                __bss_start__ = .
 *(.bss .bss.* .gnu.linkonce.b.*)
 .bss           0x20000b60       0x1c c:/users/20131/appdata/local/arduino15/packages/arduino/tools/arm-none-eabi-gcc/4.8.3-2014q1/bin/../lib/gcc/arm-none-eabi/4.8.3/armv7-m/crtbegin.o
 .bss.Delay     0x20000b7c        0x4 new_LMDZ.cpp.o
                0x20000b7c                Delay
 .bss.Serial    0x20000b80       0x18 C:\Users\20131\AppData\Local\Temp\VMBCore\arduino16x\7c3dd42e408ebb1ce4dae06851a5a8aa\variant\board.cpp.o
                0x20000b80                Serial
 .bss.Serial1   0x20000b98       0x18 C:\Users\20131\AppData\Local\Temp\VMBCore\arduino16x\7c3dd42e408ebb1ce4dae06851a5a8aa\variant\board.cpp.o
                0x20000b98                Serial1
 .bss.Serial2   0x20000bb0       0x18 C:\Users\20131\AppData\Local\Temp\VMBCore\arduino16x\7c3dd42e408ebb1ce4dae06851a5a8aa\variant\board.cpp.o
                0x20000bb0                Serial2
 .bss.exti_channels
                0x20000bc8       0x80 C:\Users\20131\AppData\Local\Temp\VMBuilds\new_LMDZ\STM32_genericSTM32F103C\Debug\core.a(exti.c.o)
 .bss.systick_user_callback
                0x20000c48        0x4 C:\Users\20131\AppData\Local\Temp\VMBuilds\new_LMDZ\STM32_genericSTM32F103C\Debug\core.a(systick.c.o)
 .bss.usart1_wb
                0x20000c4c        0xc C:\Users\20131\AppData\Local\Temp\VMBuilds\new_LMDZ\STM32_genericSTM32F103C\Debug\core.a(usart_f1.c.o)
 .bss.usart1_rb
                0x20000c58        0xc C:\Users\20131\AppData\Local\Temp\VMBuilds\new_LMDZ\STM32_genericSTM32F103C\Debug\core.a(usart_f1.c.o)
 .bss.usart2_rb
                0x20000c64        0xc C:\Users\20131\AppData\Local\Temp\VMBuilds\new_LMDZ\STM32_genericSTM32F103C\Debug\core.a(usart_f1.c.o)
 .bss.usart3_rb
                0x20000c70        0xc C:\Users\20131\AppData\Local\Temp\VMBuilds\new_LMDZ\STM32_genericSTM32F103C\Debug\core.a(usart_f1.c.o)
 .bss.usart2_wb
                0x20000c7c        0xc C:\Users\20131\AppData\Local\Temp\VMBuilds\new_LMDZ\STM32_genericSTM32F103C\Debug\core.a(usart_f1.c.o)
 .bss.usart3_wb
                0x20000c88        0xc C:\Users\20131\AppData\Local\Temp\VMBuilds\new_LMDZ\STM32_genericSTM32F103C\Debug\core.a(usart_f1.c.o)
 .bss.line_dtr_rts
                0x20000c94        0x1 C:\Users\20131\AppData\Local\Temp\VMBuilds\new_LMDZ\STM32_genericSTM32F103C\Debug\core.a(usb_cdcacm.c.o)
 *fill*         0x20000c95        0x3 
 .bss.tx_head   0x20000c98        0x4 C:\Users\20131\AppData\Local\Temp\VMBuilds\new_LMDZ\STM32_genericSTM32F103C\Debug\core.a(usb_cdcacm.c.o)
 .bss.transmitting
                0x20000c9c        0x1 C:\Users\20131\AppData\Local\Temp\VMBuilds\new_LMDZ\STM32_genericSTM32F103C\Debug\core.a(usb_cdcacm.c.o)
 *fill*         0x20000c9d        0x3 
 .bss.rx_tail   0x20000ca0        0x4 C:\Users\20131\AppData\Local\Temp\VMBuilds\new_LMDZ\STM32_genericSTM32F103C\Debug\core.a(usb_cdcacm.c.o)
 .bss.iface_setup_hook
                0x20000ca4        0x4 C:\Users\20131\AppData\Local\Temp\VMBuilds\new_LMDZ\STM32_genericSTM32F103C\Debug\core.a(usb_cdcacm.c.o)
 .bss.rx_head   0x20000ca8        0x4 C:\Users\20131\AppData\Local\Temp\VMBuilds\new_LMDZ\STM32_genericSTM32F103C\Debug\core.a(usb_cdcacm.c.o)
 .bss.tx_tail   0x20000cac        0x4 C:\Users\20131\AppData\Local\Temp\VMBuilds\new_LMDZ\STM32_genericSTM32F103C\Debug\core.a(usb_cdcacm.c.o)
 .bss.Data_Mul_MaxPacketSize
                0x20000cb0        0x1 C:\Users\20131\AppData\Local\Temp\VMBuilds\new_LMDZ\STM32_genericSTM32F103C\Debug\core.a(usb_core.c.o)
                0x20000cb0                Data_Mul_MaxPacketSize
 *(COMMON)
 *fill*         0x20000cb1        0x3 
 COMMON         0x20000cb4        0x4 C:\Users\20131\AppData\Local\Temp\VMBuilds\new_LMDZ\STM32_genericSTM32F103C\Debug\core.a(systick.c.o)
                0x20000cb4                systick_uptime_millis
 COMMON         0x20000cb8        0x6 C:\Users\20131\AppData\Local\Temp\VMBuilds\new_LMDZ\STM32_genericSTM32F103C\Debug\core.a(usb.c.o)
                0x20000cb8                SaveRState
                0x20000cba                SaveTState
                0x20000cbc                ResumeS
 COMMON         0x20000cbe        0x2 C:\Users\20131\AppData\Local\Temp\VMBuilds\new_LMDZ\STM32_genericSTM32F103C\Debug\core.a(usb_core.c.o)
                0x20000cbe                StatusInfo
 COMMON         0x20000cc0       0x32 C:\Users\20131\AppData\Local\Temp\VMBuilds\new_LMDZ\STM32_genericSTM32F103C\Debug\core.a(usb_init.c.o)
                0x20000cc0                SaveState
                0x20000cc4                pProperty
                0x20000cc8                EPindex
                0x20000ccc                Device_Info
                0x20000ce8                pUser_Standard_Requests
                0x20000cec                pInformation
                0x20000cf0                wInterrupt_Mask
                0x20000cf8                . = ALIGN (0x8)
 *fill*         0x20000cf2        0x6 
                0x20000cf8                __bss_end__ = .
                0x20000cf8                _end = __bss_end__

.stab
 *(.stab)

.stabstr
 *(.stabstr)

.debug
 *(.debug)

.line
 *(.line)

.debug_srcinfo
 *(.debug_srcinfo)

.debug_sfnames
 *(.debug_sfnames)

.debug_aranges  0x00000000      0xf88
 *(.debug_aranges)
 .debug_aranges
                0x00000000       0x30 new_LMDZ.cpp.o
 .debug_aranges
                0x00000030       0x28 aveRage.cpp.o
 .debug_aranges
                0x00000058       0x28 cmpValues.cpp.o
 .debug_aranges
                0x00000080       0x28 draw.cpp.o
 .debug_aranges
                0x000000a8       0x20 getValue.cpp.o
 .debug_aranges
                0x000000c8       0x30 quartileDeviation.cpp.o
 .debug_aranges
                0x000000f8       0x28 rearrange.cpp.o
 .debug_aranges
                0x00000120       0x30 valuesPrint.cpp.o
 .debug_aranges
                0x00000150       0x28 C:\Users\20131\AppData\Local\Temp\VMBCore\arduino16x\7c3dd42e408ebb1ce4dae06851a5a8aa\variant\board.cpp.o
 .debug_aranges
                0x00000178       0x40 C:\Users\20131\AppData\Local\Temp\VMBCore\arduino16x\7c3dd42e408ebb1ce4dae06851a5a8aa\variant\boards.cpp.o
 .debug_aranges
                0x000001b8       0x40 C:\Users\20131\AppData\Local\Temp\VMBCore\arduino16x\7c3dd42e408ebb1ce4dae06851a5a8aa\variant\boards_setup.cpp.o
 .debug_aranges
                0x000001f8       0x20 C:\Users\20131\AppData\Local\Temp\VMBCore\arduino16x\7c3dd42e408ebb1ce4dae06851a5a8aa\variant\start.S.o
 .debug_aranges
                0x00000218       0x20 C:\Users\20131\AppData\Local\Temp\VMBCore\arduino16x\7c3dd42e408ebb1ce4dae06851a5a8aa\variant\start_c.c.o
 .debug_aranges
                0x00000238       0x88 C:\Users\20131\AppData\Local\Temp\VMBCore\arduino16x\7c3dd42e408ebb1ce4dae06851a5a8aa\variant\syscalls.c.o
 .debug_aranges
                0x000002c0       0x20 C:\Users\20131\AppData\Local\Temp\VMBuilds\new_LMDZ\STM32_genericSTM32F103C\Debug\core.a(exc.S.o)
 .debug_aranges
                0x000002e0       0x20 C:\Users\20131\AppData\Local\Temp\VMBuilds\new_LMDZ\STM32_genericSTM32F103C\Debug\core.a(isrs.S.o)
 .debug_aranges
                0x00000300       0x38 C:\Users\20131\AppData\Local\Temp\VMBuilds\new_LMDZ\STM32_genericSTM32F103C\Debug\core.a(adc.c.o)
 .debug_aranges
                0x00000338       0x58 C:\Users\20131\AppData\Local\Temp\VMBuilds\new_LMDZ\STM32_genericSTM32F103C\Debug\core.a(adc_f1.c.o)
 .debug_aranges
                0x00000390       0xa8 C:\Users\20131\AppData\Local\Temp\VMBuilds\new_LMDZ\STM32_genericSTM32F103C\Debug\core.a(dma_f1.c.o)
 .debug_aranges
                0x00000438       0x70 C:\Users\20131\AppData\Local\Temp\VMBuilds\new_LMDZ\STM32_genericSTM32F103C\Debug\core.a(exti.c.o)
 .debug_aranges
                0x000004a8       0x20 C:\Users\20131\AppData\Local\Temp\VMBuilds\new_LMDZ\STM32_genericSTM32F103C\Debug\core.a(exti_f1.c.o)
 .debug_aranges
                0x000004c8       0x20 C:\Users\20131\AppData\Local\Temp\VMBuilds\new_LMDZ\STM32_genericSTM32F103C\Debug\core.a(flash.c.o)
 .debug_aranges
                0x000004e8       0x40 C:\Users\20131\AppData\Local\Temp\VMBuilds\new_LMDZ\STM32_genericSTM32F103C\Debug\core.a(gpio_f1.c.o)
 .debug_aranges
                0x00000528       0x50 C:\Users\20131\AppData\Local\Temp\VMBuilds\new_LMDZ\STM32_genericSTM32F103C\Debug\core.a(i2c_f1.c.o)
 .debug_aranges
                0x00000578       0x38 C:\Users\20131\AppData\Local\Temp\VMBuilds\new_LMDZ\STM32_genericSTM32F103C\Debug\core.a(nvic.c.o)
 .debug_aranges
                0x000005b0       0x48 C:\Users\20131\AppData\Local\Temp\VMBuilds\new_LMDZ\STM32_genericSTM32F103C\Debug\core.a(rcc.c.o)
 .debug_aranges
                0x000005f8       0x48 C:\Users\20131\AppData\Local\Temp\VMBuilds\new_LMDZ\STM32_genericSTM32F103C\Debug\core.a(rcc_f1.c.o)
 .debug_aranges
                0x00000640       0x40 C:\Users\20131\AppData\Local\Temp\VMBuilds\new_LMDZ\STM32_genericSTM32F103C\Debug\core.a(systick.c.o)
 .debug_aranges
                0x00000680       0xa8 C:\Users\20131\AppData\Local\Temp\VMBuilds\new_LMDZ\STM32_genericSTM32F103C\Debug\core.a(timer.c.o)
 .debug_aranges
                0x00000728       0x58 C:\Users\20131\AppData\Local\Temp\VMBuilds\new_LMDZ\STM32_genericSTM32F103C\Debug\core.a(usart_f1.c.o)
 .debug_aranges
                0x00000780       0x20 C:\Users\20131\AppData\Local\Temp\VMBuilds\new_LMDZ\STM32_genericSTM32F103C\Debug\core.a(usart_private.c.o)
 .debug_aranges
                0x000007a0       0x50 C:\Users\20131\AppData\Local\Temp\VMBuilds\new_LMDZ\STM32_genericSTM32F103C\Debug\core.a(util.c.o)
 .debug_aranges
                0x000007f0       0x38 C:\Users\20131\AppData\Local\Temp\VMBuilds\new_LMDZ\STM32_genericSTM32F103C\Debug\core.a(usb.c.o)
 .debug_aranges
                0x00000828      0x128 C:\Users\20131\AppData\Local\Temp\VMBuilds\new_LMDZ\STM32_genericSTM32F103C\Debug\core.a(usb_cdcacm.c.o)
 .debug_aranges
                0x00000950       0x20 C:\Users\20131\AppData\Local\Temp\VMBuilds\new_LMDZ\STM32_genericSTM32F103C\Debug\core.a(usb_reg_map.c.o)
 .debug_aranges
                0x00000970       0x98 C:\Users\20131\AppData\Local\Temp\VMBuilds\new_LMDZ\STM32_genericSTM32F103C\Debug\core.a(usb_core.c.o)
 .debug_aranges
                0x00000a08       0x20 C:\Users\20131\AppData\Local\Temp\VMBuilds\new_LMDZ\STM32_genericSTM32F103C\Debug\core.a(usb_init.c.o)
 .debug_aranges
                0x00000a28       0x28 C:\Users\20131\AppData\Local\Temp\VMBuilds\new_LMDZ\STM32_genericSTM32F103C\Debug\core.a(usb_mem.c.o)
 .debug_aranges
                0x00000a50      0x1f0 C:\Users\20131\AppData\Local\Temp\VMBuilds\new_LMDZ\STM32_genericSTM32F103C\Debug\core.a(usb_regs.c.o)
 .debug_aranges
                0x00000c40       0x70 C:\Users\20131\AppData\Local\Temp\VMBuilds\new_LMDZ\STM32_genericSTM32F103C\Debug\core.a(HardwareSerial.cpp.o)
 .debug_aranges
                0x00000cb0       0x28 C:\Users\20131\AppData\Local\Temp\VMBuilds\new_LMDZ\STM32_genericSTM32F103C\Debug\core.a(main.cpp.o)
 .debug_aranges
                0x00000cd8      0x110 C:\Users\20131\AppData\Local\Temp\VMBuilds\new_LMDZ\STM32_genericSTM32F103C\Debug\core.a(Print.cpp.o)
 .debug_aranges
                0x00000de8       0x20 C:\Users\20131\AppData\Local\Temp\VMBuilds\new_LMDZ\STM32_genericSTM32F103C\Debug\core.a(wirish_analog.cpp.o)
 .debug_aranges
                0x00000e08       0x30 C:\Users\20131\AppData\Local\Temp\VMBuilds\new_LMDZ\STM32_genericSTM32F103C\Debug\core.a(wirish_time.cpp.o)
 .debug_aranges
                0x00000e38       0x20 C:\Users\20131\AppData\Local\Temp\VMBuilds\new_LMDZ\STM32_genericSTM32F103C\Debug\core.a(wirish_digital_f1.cpp.o)
 .debug_aranges
                0x00000e58       0x20 C:\Users\20131\AppData\Local\Temp\VMBuilds\new_LMDZ\STM32_genericSTM32F103C\Debug\core.a(hooks.c.o)
 .debug_aranges
                0x00000e78       0x28 C:\Users\20131\AppData\Local\Temp\VMBuilds\new_LMDZ\STM32_genericSTM32F103C\Debug\core.a(dma.c.o)
 .debug_aranges
                0x00000ea0       0x20 C:\Users\20131\AppData\Local\Temp\VMBuilds\new_LMDZ\STM32_genericSTM32F103C\Debug\core.a(gpio.c.o)
 .debug_aranges
                0x00000ec0       0x60 C:\Users\20131\AppData\Local\Temp\VMBuilds\new_LMDZ\STM32_genericSTM32F103C\Debug\core.a(i2c.c.o)
 .debug_aranges
                0x00000f20       0x48 C:\Users\20131\AppData\Local\Temp\VMBuilds\new_LMDZ\STM32_genericSTM32F103C\Debug\core.a(usart.c.o)
 .debug_aranges
                0x00000f68       0x20 C:\Users\20131\AppData\Local\Temp\VMBuilds\new_LMDZ\STM32_genericSTM32F103C\Debug\core.a(cxxabi-compat.cpp.o)

.debug_pubnames
 *(.debug_pubnames)

.debug_info     0x00000000    0x1da99
 *(.debug_info .gnu.linkonce.wi.*)
 .debug_info    0x00000000      0x601 new_LMDZ.cpp.o
 .debug_info    0x00000601      0x17b aveRage.cpp.o
 .debug_info    0x0000077c      0x1c7 cmpValues.cpp.o
 .debug_info    0x00000943      0x243 draw.cpp.o
 .debug_info    0x00000b86      0x32d getValue.cpp.o
 .debug_info    0x00000eb3      0x2a4 quartileDeviation.cpp.o
 .debug_info    0x00001157      0x1a7 rearrange.cpp.o
 .debug_info    0x000012fe      0x421 valuesPrint.cpp.o
 .debug_info    0x0000171f      0xf2e C:\Users\20131\AppData\Local\Temp\VMBCore\arduino16x\7c3dd42e408ebb1ce4dae06851a5a8aa\variant\board.cpp.o
 .debug_info    0x0000264d     0x142d C:\Users\20131\AppData\Local\Temp\VMBCore\arduino16x\7c3dd42e408ebb1ce4dae06851a5a8aa\variant\boards.cpp.o
 .debug_info    0x00003a7a      0x665 C:\Users\20131\AppData\Local\Temp\VMBCore\arduino16x\7c3dd42e408ebb1ce4dae06851a5a8aa\variant\boards_setup.cpp.o
 .debug_info    0x000040df       0xb1 C:\Users\20131\AppData\Local\Temp\VMBCore\arduino16x\7c3dd42e408ebb1ce4dae06851a5a8aa\variant\start.S.o
 .debug_info    0x00004190      0x176 C:\Users\20131\AppData\Local\Temp\VMBCore\arduino16x\7c3dd42e408ebb1ce4dae06851a5a8aa\variant\start_c.c.o
 .debug_info    0x00004306      0x5cd C:\Users\20131\AppData\Local\Temp\VMBCore\arduino16x\7c3dd42e408ebb1ce4dae06851a5a8aa\variant\syscalls.c.o
 .debug_info    0x000048d3       0xa1 C:\Users\20131\AppData\Local\Temp\VMBuilds\new_LMDZ\STM32_genericSTM32F103C\Debug\core.a(exc.S.o)
 .debug_info    0x00004974       0xb6 C:\Users\20131\AppData\Local\Temp\VMBuilds\new_LMDZ\STM32_genericSTM32F103C\Debug\core.a(isrs.S.o)
 .debug_info    0x00004a2a      0x79a C:\Users\20131\AppData\Local\Temp\VMBuilds\new_LMDZ\STM32_genericSTM32F103C\Debug\core.a(adc.c.o)
 .debug_info    0x000051c4      0xe4a C:\Users\20131\AppData\Local\Temp\VMBuilds\new_LMDZ\STM32_genericSTM32F103C\Debug\core.a(adc_f1.c.o)
 .debug_info    0x0000600e     0x1c1b C:\Users\20131\AppData\Local\Temp\VMBuilds\new_LMDZ\STM32_genericSTM32F103C\Debug\core.a(dma_f1.c.o)
 .debug_info    0x00007c29      0xedd C:\Users\20131\AppData\Local\Temp\VMBuilds\new_LMDZ\STM32_genericSTM32F103C\Debug\core.a(exti.c.o)
 .debug_info    0x00008b06      0x213 C:\Users\20131\AppData\Local\Temp\VMBuilds\new_LMDZ\STM32_genericSTM32F103C\Debug\core.a(exti_f1.c.o)
 .debug_info    0x00008d19      0x128 C:\Users\20131\AppData\Local\Temp\VMBuilds\new_LMDZ\STM32_genericSTM32F103C\Debug\core.a(flash.c.o)
 .debug_info    0x00008e41      0x6d6 C:\Users\20131\AppData\Local\Temp\VMBuilds\new_LMDZ\STM32_genericSTM32F103C\Debug\core.a(gpio_f1.c.o)
 .debug_info    0x00009517      0xbd5 C:\Users\20131\AppData\Local\Temp\VMBuilds\new_LMDZ\STM32_genericSTM32F103C\Debug\core.a(i2c_f1.c.o)
 .debug_info    0x0000a0ec      0x5a2 C:\Users\20131\AppData\Local\Temp\VMBuilds\new_LMDZ\STM32_genericSTM32F103C\Debug\core.a(nvic.c.o)
 .debug_info    0x0000a68e      0x556 C:\Users\20131\AppData\Local\Temp\VMBuilds\new_LMDZ\STM32_genericSTM32F103C\Debug\core.a(rcc.c.o)
 .debug_info    0x0000abe4      0xbdb C:\Users\20131\AppData\Local\Temp\VMBuilds\new_LMDZ\STM32_genericSTM32F103C\Debug\core.a(rcc_f1.c.o)
 .debug_info    0x0000b7bf      0x182 C:\Users\20131\AppData\Local\Temp\VMBuilds\new_LMDZ\STM32_genericSTM32F103C\Debug\core.a(systick.c.o)
 .debug_info    0x0000b941     0x1bfc C:\Users\20131\AppData\Local\Temp\VMBuilds\new_LMDZ\STM32_genericSTM32F103C\Debug\core.a(timer.c.o)
 .debug_info    0x0000d53d      0xbc4 C:\Users\20131\AppData\Local\Temp\VMBuilds\new_LMDZ\STM32_genericSTM32F103C\Debug\core.a(usart_f1.c.o)
 .debug_info    0x0000e101      0x595 C:\Users\20131\AppData\Local\Temp\VMBuilds\new_LMDZ\STM32_genericSTM32F103C\Debug\core.a(usart_private.c.o)
 .debug_info    0x0000e696      0xad2 C:\Users\20131\AppData\Local\Temp\VMBuilds\new_LMDZ\STM32_genericSTM32F103C\Debug\core.a(util.c.o)
 .debug_info    0x0000f168      0xd9b C:\Users\20131\AppData\Local\Temp\VMBuilds\new_LMDZ\STM32_genericSTM32F103C\Debug\core.a(usb.c.o)
 .debug_info    0x0000ff03     0x22d2 C:\Users\20131\AppData\Local\Temp\VMBuilds\new_LMDZ\STM32_genericSTM32F103C\Debug\core.a(usb_cdcacm.c.o)
 .debug_info    0x000121d5      0x26c C:\Users\20131\AppData\Local\Temp\VMBuilds\new_LMDZ\STM32_genericSTM32F103C\Debug\core.a(usb_reg_map.c.o)
 .debug_info    0x00012441      0xddf C:\Users\20131\AppData\Local\Temp\VMBuilds\new_LMDZ\STM32_genericSTM32F103C\Debug\core.a(usb_core.c.o)
 .debug_info    0x00013220      0x3ed C:\Users\20131\AppData\Local\Temp\VMBuilds\new_LMDZ\STM32_genericSTM32F103C\Debug\core.a(usb_init.c.o)
 .debug_info    0x0001360d      0x17b C:\Users\20131\AppData\Local\Temp\VMBuilds\new_LMDZ\STM32_genericSTM32F103C\Debug\core.a(usb_mem.c.o)
 .debug_info    0x00013788      0xc88 C:\Users\20131\AppData\Local\Temp\VMBuilds\new_LMDZ\STM32_genericSTM32F103C\Debug\core.a(usb_regs.c.o)
 .debug_info    0x00014410     0x29ea C:\Users\20131\AppData\Local\Temp\VMBuilds\new_LMDZ\STM32_genericSTM32F103C\Debug\core.a(HardwareSerial.cpp.o)
 .debug_info    0x00016dfa       0x99 C:\Users\20131\AppData\Local\Temp\VMBuilds\new_LMDZ\STM32_genericSTM32F103C\Debug\core.a(main.cpp.o)
 .debug_info    0x00016e93     0x258c C:\Users\20131\AppData\Local\Temp\VMBuilds\new_LMDZ\STM32_genericSTM32F103C\Debug\core.a(Print.cpp.o)
 .debug_info    0x0001941f      0xa7e C:\Users\20131\AppData\Local\Temp\VMBuilds\new_LMDZ\STM32_genericSTM32F103C\Debug\core.a(wirish_analog.cpp.o)
 .debug_info    0x00019e9d      0x2c6 C:\Users\20131\AppData\Local\Temp\VMBuilds\new_LMDZ\STM32_genericSTM32F103C\Debug\core.a(wirish_time.cpp.o)
 .debug_info    0x0001a163      0xc8a C:\Users\20131\AppData\Local\Temp\VMBuilds\new_LMDZ\STM32_genericSTM32F103C\Debug\core.a(wirish_digital_f1.cpp.o)
 .debug_info    0x0001aded       0x33 C:\Users\20131\AppData\Local\Temp\VMBuilds\new_LMDZ\STM32_genericSTM32F103C\Debug\core.a(hooks.c.o)
 .debug_info    0x0001ae20      0x6f7 C:\Users\20131\AppData\Local\Temp\VMBuilds\new_LMDZ\STM32_genericSTM32F103C\Debug\core.a(dma.c.o)
 .debug_info    0x0001b517      0x313 C:\Users\20131\AppData\Local\Temp\VMBuilds\new_LMDZ\STM32_genericSTM32F103C\Debug\core.a(gpio.c.o)
 .debug_info    0x0001b82a     0x160a C:\Users\20131\AppData\Local\Temp\VMBuilds\new_LMDZ\STM32_genericSTM32F103C\Debug\core.a(i2c.c.o)
 .debug_info    0x0001ce34      0xc32 C:\Users\20131\AppData\Local\Temp\VMBuilds\new_LMDZ\STM32_genericSTM32F103C\Debug\core.a(usart.c.o)
 .debug_info    0x0001da66       0x33 C:\Users\20131\AppData\Local\Temp\VMBuilds\new_LMDZ\STM32_genericSTM32F103C\Debug\core.a(cxxabi-compat.cpp.o)

.debug_abbrev   0x00000000     0x6202
 *(.debug_abbrev)
 .debug_abbrev  0x00000000      0x25e new_LMDZ.cpp.o
 .debug_abbrev  0x0000025e      0x12c aveRage.cpp.o
 .debug_abbrev  0x0000038a      0x13a cmpValues.cpp.o
 .debug_abbrev  0x000004c4      0x165 draw.cpp.o
 .debug_abbrev  0x00000629      0x16f getValue.cpp.o
 .debug_abbrev  0x00000798      0x175 quartileDeviation.cpp.o
 .debug_abbrev  0x0000090d      0x13a rearrange.cpp.o
 .debug_abbrev  0x00000a47      0x1c9 valuesPrint.cpp.o
 .debug_abbrev  0x00000c10      0x1ea C:\Users\20131\AppData\Local\Temp\VMBCore\arduino16x\7c3dd42e408ebb1ce4dae06851a5a8aa\variant\board.cpp.o
 .debug_abbrev  0x00000dfa      0x3dd C:\Users\20131\AppData\Local\Temp\VMBCore\arduino16x\7c3dd42e408ebb1ce4dae06851a5a8aa\variant\boards.cpp.o
 .debug_abbrev  0x000011d7      0x196 C:\Users\20131\AppData\Local\Temp\VMBCore\arduino16x\7c3dd42e408ebb1ce4dae06851a5a8aa\variant\boards_setup.cpp.o
 .debug_abbrev  0x0000136d       0x14 C:\Users\20131\AppData\Local\Temp\VMBCore\arduino16x\7c3dd42e408ebb1ce4dae06851a5a8aa\variant\start.S.o
 .debug_abbrev  0x00001381      0x11f C:\Users\20131\AppData\Local\Temp\VMBCore\arduino16x\7c3dd42e408ebb1ce4dae06851a5a8aa\variant\start_c.c.o
 .debug_abbrev  0x000014a0      0x17e C:\Users\20131\AppData\Local\Temp\VMBCore\arduino16x\7c3dd42e408ebb1ce4dae06851a5a8aa\variant\syscalls.c.o
 .debug_abbrev  0x0000161e       0x14 C:\Users\20131\AppData\Local\Temp\VMBuilds\new_LMDZ\STM32_genericSTM32F103C\Debug\core.a(exc.S.o)
 .debug_abbrev  0x00001632       0x14 C:\Users\20131\AppData\Local\Temp\VMBuilds\new_LMDZ\STM32_genericSTM32F103C\Debug\core.a(isrs.S.o)
 .debug_abbrev  0x00001646      0x20b C:\Users\20131\AppData\Local\Temp\VMBuilds\new_LMDZ\STM32_genericSTM32F103C\Debug\core.a(adc.c.o)
 .debug_abbrev  0x00001851      0x2e6 C:\Users\20131\AppData\Local\Temp\VMBuilds\new_LMDZ\STM32_genericSTM32F103C\Debug\core.a(adc_f1.c.o)
 .debug_abbrev  0x00001b37      0x3ff C:\Users\20131\AppData\Local\Temp\VMBuilds\new_LMDZ\STM32_genericSTM32F103C\Debug\core.a(dma_f1.c.o)
 .debug_abbrev  0x00001f36      0x2a5 C:\Users\20131\AppData\Local\Temp\VMBuilds\new_LMDZ\STM32_genericSTM32F103C\Debug\core.a(exti.c.o)
 .debug_abbrev  0x000021db       0xdb C:\Users\20131\AppData\Local\Temp\VMBuilds\new_LMDZ\STM32_genericSTM32F103C\Debug\core.a(exti_f1.c.o)
 .debug_abbrev  0x000022b6       0x9f C:\Users\20131\AppData\Local\Temp\VMBuilds\new_LMDZ\STM32_genericSTM32F103C\Debug\core.a(flash.c.o)
 .debug_abbrev  0x00002355      0x191 C:\Users\20131\AppData\Local\Temp\VMBuilds\new_LMDZ\STM32_genericSTM32F103C\Debug\core.a(gpio_f1.c.o)
 .debug_abbrev  0x000024e6      0x202 C:\Users\20131\AppData\Local\Temp\VMBuilds\new_LMDZ\STM32_genericSTM32F103C\Debug\core.a(i2c_f1.c.o)
 .debug_abbrev  0x000026e8      0x1ac C:\Users\20131\AppData\Local\Temp\VMBuilds\new_LMDZ\STM32_genericSTM32F103C\Debug\core.a(nvic.c.o)
 .debug_abbrev  0x00002894      0x17f C:\Users\20131\AppData\Local\Temp\VMBuilds\new_LMDZ\STM32_genericSTM32F103C\Debug\core.a(rcc.c.o)
 .debug_abbrev  0x00002a13      0x28c C:\Users\20131\AppData\Local\Temp\VMBuilds\new_LMDZ\STM32_genericSTM32F103C\Debug\core.a(rcc_f1.c.o)
 .debug_abbrev  0x00002c9f      0x10f C:\Users\20131\AppData\Local\Temp\VMBuilds\new_LMDZ\STM32_genericSTM32F103C\Debug\core.a(systick.c.o)
 .debug_abbrev  0x00002dae      0x46a C:\Users\20131\AppData\Local\Temp\VMBuilds\new_LMDZ\STM32_genericSTM32F103C\Debug\core.a(timer.c.o)
 .debug_abbrev  0x00003218      0x292 C:\Users\20131\AppData\Local\Temp\VMBuilds\new_LMDZ\STM32_genericSTM32F103C\Debug\core.a(usart_f1.c.o)
 .debug_abbrev  0x000034aa      0x144 C:\Users\20131\AppData\Local\Temp\VMBuilds\new_LMDZ\STM32_genericSTM32F103C\Debug\core.a(usart_private.c.o)
 .debug_abbrev  0x000035ee      0x2c9 C:\Users\20131\AppData\Local\Temp\VMBuilds\new_LMDZ\STM32_genericSTM32F103C\Debug\core.a(util.c.o)
 .debug_abbrev  0x000038b7      0x343 C:\Users\20131\AppData\Local\Temp\VMBuilds\new_LMDZ\STM32_genericSTM32F103C\Debug\core.a(usb.c.o)
 .debug_abbrev  0x00003bfa      0x47d C:\Users\20131\AppData\Local\Temp\VMBuilds\new_LMDZ\STM32_genericSTM32F103C\Debug\core.a(usb_cdcacm.c.o)
 .debug_abbrev  0x00004077      0x193 C:\Users\20131\AppData\Local\Temp\VMBuilds\new_LMDZ\STM32_genericSTM32F103C\Debug\core.a(usb_reg_map.c.o)
 .debug_abbrev  0x0000420a      0x3a6 C:\Users\20131\AppData\Local\Temp\VMBuilds\new_LMDZ\STM32_genericSTM32F103C\Debug\core.a(usb_core.c.o)
 .debug_abbrev  0x000045b0      0x101 C:\Users\20131\AppData\Local\Temp\VMBuilds\new_LMDZ\STM32_genericSTM32F103C\Debug\core.a(usb_init.c.o)
 .debug_abbrev  0x000046b1       0x90 C:\Users\20131\AppData\Local\Temp\VMBuilds\new_LMDZ\STM32_genericSTM32F103C\Debug\core.a(usb_mem.c.o)
 .debug_abbrev  0x00004741      0x1f3 C:\Users\20131\AppData\Local\Temp\VMBuilds\new_LMDZ\STM32_genericSTM32F103C\Debug\core.a(usb_regs.c.o)
 .debug_abbrev  0x00004934      0x535 C:\Users\20131\AppData\Local\Temp\VMBuilds\new_LMDZ\STM32_genericSTM32F103C\Debug\core.a(HardwareSerial.cpp.o)
 .debug_abbrev  0x00004e69       0x7b C:\Users\20131\AppData\Local\Temp\VMBuilds\new_LMDZ\STM32_genericSTM32F103C\Debug\core.a(main.cpp.o)
 .debug_abbrev  0x00004ee4      0x414 C:\Users\20131\AppData\Local\Temp\VMBuilds\new_LMDZ\STM32_genericSTM32F103C\Debug\core.a(Print.cpp.o)
 .debug_abbrev  0x000052f8      0x15f C:\Users\20131\AppData\Local\Temp\VMBuilds\new_LMDZ\STM32_genericSTM32F103C\Debug\core.a(wirish_analog.cpp.o)
 .debug_abbrev  0x00005457      0x189 C:\Users\20131\AppData\Local\Temp\VMBuilds\new_LMDZ\STM32_genericSTM32F103C\Debug\core.a(wirish_time.cpp.o)
 .debug_abbrev  0x000055e0      0x240 C:\Users\20131\AppData\Local\Temp\VMBuilds\new_LMDZ\STM32_genericSTM32F103C\Debug\core.a(wirish_digital_f1.cpp.o)
 .debug_abbrev  0x00005820       0x26 C:\Users\20131\AppData\Local\Temp\VMBuilds\new_LMDZ\STM32_genericSTM32F103C\Debug\core.a(hooks.c.o)
 .debug_abbrev  0x00005846      0x182 C:\Users\20131\AppData\Local\Temp\VMBuilds\new_LMDZ\STM32_genericSTM32F103C\Debug\core.a(dma.c.o)
 .debug_abbrev  0x000059c8      0x113 C:\Users\20131\AppData\Local\Temp\VMBuilds\new_LMDZ\STM32_genericSTM32F103C\Debug\core.a(gpio.c.o)
 .debug_abbrev  0x00005adb      0x400 C:\Users\20131\AppData\Local\Temp\VMBuilds\new_LMDZ\STM32_genericSTM32F103C\Debug\core.a(i2c.c.o)
 .debug_abbrev  0x00005edb      0x2ff C:\Users\20131\AppData\Local\Temp\VMBuilds\new_LMDZ\STM32_genericSTM32F103C\Debug\core.a(usart.c.o)
 .debug_abbrev  0x000061da       0x28 C:\Users\20131\AppData\Local\Temp\VMBuilds\new_LMDZ\STM32_genericSTM32F103C\Debug\core.a(cxxabi-compat.cpp.o)

.debug_line     0x00000000     0x9b61
 *(.debug_line)
 .debug_line    0x00000000      0x3eb new_LMDZ.cpp.o
 .debug_line    0x000003eb       0xdd aveRage.cpp.o
 .debug_line    0x000004c8       0xe1 cmpValues.cpp.o
 .debug_line    0x000005a9      0x31d draw.cpp.o
 .debug_line    0x000008c6      0x302 getValue.cpp.o
 .debug_line    0x00000bc8      0x113 quartileDeviation.cpp.o
 .debug_line    0x00000cdb       0xef rearrange.cpp.o
 .debug_line    0x00000dca      0x371 valuesPrint.cpp.o
 .debug_line    0x0000113b      0x3b8 C:\Users\20131\AppData\Local\Temp\VMBCore\arduino16x\7c3dd42e408ebb1ce4dae06851a5a8aa\variant\board.cpp.o
 .debug_line    0x000014f3      0x44f C:\Users\20131\AppData\Local\Temp\VMBCore\arduino16x\7c3dd42e408ebb1ce4dae06851a5a8aa\variant\boards.cpp.o
 .debug_line    0x00001942      0x33e C:\Users\20131\AppData\Local\Temp\VMBCore\arduino16x\7c3dd42e408ebb1ce4dae06851a5a8aa\variant\boards_setup.cpp.o
 .debug_line    0x00001c80       0x95 C:\Users\20131\AppData\Local\Temp\VMBCore\arduino16x\7c3dd42e408ebb1ce4dae06851a5a8aa\variant\start.S.o
 .debug_line    0x00001d15       0xa6 C:\Users\20131\AppData\Local\Temp\VMBCore\arduino16x\7c3dd42e408ebb1ce4dae06851a5a8aa\variant\start_c.c.o
 .debug_line    0x00001dbb      0x2eb C:\Users\20131\AppData\Local\Temp\VMBCore\arduino16x\7c3dd42e408ebb1ce4dae06851a5a8aa\variant\syscalls.c.o
 .debug_line    0x000020a6       0x98 C:\Users\20131\AppData\Local\Temp\VMBuilds\new_LMDZ\STM32_genericSTM32F103C\Debug\core.a(exc.S.o)
 .debug_line    0x0000213e       0x95 C:\Users\20131\AppData\Local\Temp\VMBuilds\new_LMDZ\STM32_genericSTM32F103C\Debug\core.a(isrs.S.o)
 .debug_line    0x000021d3      0x2e5 C:\Users\20131\AppData\Local\Temp\VMBuilds\new_LMDZ\STM32_genericSTM32F103C\Debug\core.a(adc.c.o)
 .debug_line    0x000024b8      0x391 C:\Users\20131\AppData\Local\Temp\VMBuilds\new_LMDZ\STM32_genericSTM32F103C\Debug\core.a(adc_f1.c.o)
 .debug_line    0x00002849      0x699 C:\Users\20131\AppData\Local\Temp\VMBuilds\new_LMDZ\STM32_genericSTM32F103C\Debug\core.a(dma_f1.c.o)
 .debug_line    0x00002ee2      0x3fb C:\Users\20131\AppData\Local\Temp\VMBuilds\new_LMDZ\STM32_genericSTM32F103C\Debug\core.a(exti.c.o)
 .debug_line    0x000032dd      0x2c8 C:\Users\20131\AppData\Local\Temp\VMBuilds\new_LMDZ\STM32_genericSTM32F103C\Debug\core.a(exti_f1.c.o)
 .debug_line    0x000035a5      0x267 C:\Users\20131\AppData\Local\Temp\VMBuilds\new_LMDZ\STM32_genericSTM32F103C\Debug\core.a(flash.c.o)
 .debug_line    0x0000380c      0x2fc C:\Users\20131\AppData\Local\Temp\VMBuilds\new_LMDZ\STM32_genericSTM32F103C\Debug\core.a(gpio_f1.c.o)
 .debug_line    0x00003b08      0x3d8 C:\Users\20131\AppData\Local\Temp\VMBuilds\new_LMDZ\STM32_genericSTM32F103C\Debug\core.a(i2c_f1.c.o)
 .debug_line    0x00003ee0      0x2cf C:\Users\20131\AppData\Local\Temp\VMBuilds\new_LMDZ\STM32_genericSTM32F103C\Debug\core.a(nvic.c.o)
 .debug_line    0x000041af      0x349 C:\Users\20131\AppData\Local\Temp\VMBuilds\new_LMDZ\STM32_genericSTM32F103C\Debug\core.a(rcc.c.o)
 .debug_line    0x000044f8      0x3ac C:\Users\20131\AppData\Local\Temp\VMBuilds\new_LMDZ\STM32_genericSTM32F103C\Debug\core.a(rcc_f1.c.o)
 .debug_line    0x000048a4      0x258 C:\Users\20131\AppData\Local\Temp\VMBuilds\new_LMDZ\STM32_genericSTM32F103C\Debug\core.a(systick.c.o)
 .debug_line    0x00004afc      0x5a2 C:\Users\20131\AppData\Local\Temp\VMBuilds\new_LMDZ\STM32_genericSTM32F103C\Debug\core.a(timer.c.o)
 .debug_line    0x0000509e      0x402 C:\Users\20131\AppData\Local\Temp\VMBuilds\new_LMDZ\STM32_genericSTM32F103C\Debug\core.a(usart_f1.c.o)
 .debug_line    0x000054a0      0x2a3 C:\Users\20131\AppData\Local\Temp\VMBuilds\new_LMDZ\STM32_genericSTM32F103C\Debug\core.a(usart_private.c.o)
 .debug_line    0x00005743      0x36b C:\Users\20131\AppData\Local\Temp\VMBuilds\new_LMDZ\STM32_genericSTM32F103C\Debug\core.a(util.c.o)
 .debug_line    0x00005aae      0x4b4 C:\Users\20131\AppData\Local\Temp\VMBuilds\new_LMDZ\STM32_genericSTM32F103C\Debug\core.a(usb.c.o)
 .debug_line    0x00005f62      0x8ab C:\Users\20131\AppData\Local\Temp\VMBuilds\new_LMDZ\STM32_genericSTM32F103C\Debug\core.a(usb_cdcacm.c.o)
 .debug_line    0x0000680d      0x298 C:\Users\20131\AppData\Local\Temp\VMBuilds\new_LMDZ\STM32_genericSTM32F103C\Debug\core.a(usb_reg_map.c.o)
 .debug_line    0x00006aa5      0x3f3 C:\Users\20131\AppData\Local\Temp\VMBuilds\new_LMDZ\STM32_genericSTM32F103C\Debug\core.a(usb_core.c.o)
 .debug_line    0x00006e98      0x108 C:\Users\20131\AppData\Local\Temp\VMBuilds\new_LMDZ\STM32_genericSTM32F103C\Debug\core.a(usb_init.c.o)
 .debug_line    0x00006fa0      0x134 C:\Users\20131\AppData\Local\Temp\VMBuilds\new_LMDZ\STM32_genericSTM32F103C\Debug\core.a(usb_mem.c.o)
 .debug_line    0x000070d4      0x56c C:\Users\20131\AppData\Local\Temp\VMBuilds\new_LMDZ\STM32_genericSTM32F103C\Debug\core.a(usb_regs.c.o)
 .debug_line    0x00007640      0x4fd C:\Users\20131\AppData\Local\Temp\VMBuilds\new_LMDZ\STM32_genericSTM32F103C\Debug\core.a(HardwareSerial.cpp.o)
 .debug_line    0x00007b3d       0x90 C:\Users\20131\AppData\Local\Temp\VMBuilds\new_LMDZ\STM32_genericSTM32F103C\Debug\core.a(main.cpp.o)
 .debug_line    0x00007bcd      0x58a C:\Users\20131\AppData\Local\Temp\VMBuilds\new_LMDZ\STM32_genericSTM32F103C\Debug\core.a(Print.cpp.o)
 .debug_line    0x00008157      0x2cb C:\Users\20131\AppData\Local\Temp\VMBuilds\new_LMDZ\STM32_genericSTM32F103C\Debug\core.a(wirish_analog.cpp.o)
 .debug_line    0x00008422      0x2fd C:\Users\20131\AppData\Local\Temp\VMBuilds\new_LMDZ\STM32_genericSTM32F103C\Debug\core.a(wirish_time.cpp.o)
 .debug_line    0x0000871f      0x376 C:\Users\20131\AppData\Local\Temp\VMBuilds\new_LMDZ\STM32_genericSTM32F103C\Debug\core.a(wirish_digital_f1.cpp.o)
 .debug_line    0x00008a95       0x79 C:\Users\20131\AppData\Local\Temp\VMBuilds\new_LMDZ\STM32_genericSTM32F103C\Debug\core.a(hooks.c.o)
 .debug_line    0x00008b0e      0x312 C:\Users\20131\AppData\Local\Temp\VMBuilds\new_LMDZ\STM32_genericSTM32F103C\Debug\core.a(dma.c.o)
 .debug_line    0x00008e20      0x28c C:\Users\20131\AppData\Local\Temp\VMBuilds\new_LMDZ\STM32_genericSTM32F103C\Debug\core.a(gpio.c.o)
 .debug_line    0x000090ac      0x637 C:\Users\20131\AppData\Local\Temp\VMBuilds\new_LMDZ\STM32_genericSTM32F103C\Debug\core.a(i2c.c.o)
 .debug_line    0x000096e3      0x3fd C:\Users\20131\AppData\Local\Temp\VMBuilds\new_LMDZ\STM32_genericSTM32F103C\Debug\core.a(usart.c.o)
 .debug_line    0x00009ae0       0x81 C:\Users\20131\AppData\Local\Temp\VMBuilds\new_LMDZ\STM32_genericSTM32F103C\Debug\core.a(cxxabi-compat.cpp.o)

.debug_frame    0x00000000     0x2330
 *(.debug_frame)
 .debug_frame   0x00000000       0x50 new_LMDZ.cpp.o
 .debug_frame   0x00000050       0x4c aveRage.cpp.o
 .debug_frame   0x0000009c       0x48 cmpValues.cpp.o
 .debug_frame   0x000000e4       0x44 draw.cpp.o
 .debug_frame   0x00000128       0x30 getValue.cpp.o
 .debug_frame   0x00000158       0x74 quartileDeviation.cpp.o
 .debug_frame   0x000001cc       0x48 rearrange.cpp.o
 .debug_frame   0x00000214       0x64 valuesPrint.cpp.o
 .debug_frame   0x00000278       0x38 C:\Users\20131\AppData\Local\Temp\VMBCore\arduino16x\7c3dd42e408ebb1ce4dae06851a5a8aa\variant\board.cpp.o
 .debug_frame   0x000002b0       0x84 C:\Users\20131\AppData\Local\Temp\VMBCore\arduino16x\7c3dd42e408ebb1ce4dae06851a5a8aa\variant\boards.cpp.o
 .debug_frame   0x00000334       0x68 C:\Users\20131\AppData\Local\Temp\VMBCore\arduino16x\7c3dd42e408ebb1ce4dae06851a5a8aa\variant\boards_setup.cpp.o
 .debug_frame   0x0000039c       0x28 C:\Users\20131\AppData\Local\Temp\VMBCore\arduino16x\7c3dd42e408ebb1ce4dae06851a5a8aa\variant\start_c.c.o
 .debug_frame   0x000003c4      0x130 C:\Users\20131\AppData\Local\Temp\VMBCore\arduino16x\7c3dd42e408ebb1ce4dae06851a5a8aa\variant\syscalls.c.o
 .debug_frame   0x000004f4       0x64 C:\Users\20131\AppData\Local\Temp\VMBuilds\new_LMDZ\STM32_genericSTM32F103C\Debug\core.a(adc.c.o)
 .debug_frame   0x00000558       0xb4 C:\Users\20131\AppData\Local\Temp\VMBuilds\new_LMDZ\STM32_genericSTM32F103C\Debug\core.a(adc_f1.c.o)
 .debug_frame   0x0000060c      0x1cc C:\Users\20131\AppData\Local\Temp\VMBuilds\new_LMDZ\STM32_genericSTM32F103C\Debug\core.a(dma_f1.c.o)
 .debug_frame   0x000007d8      0x128 C:\Users\20131\AppData\Local\Temp\VMBuilds\new_LMDZ\STM32_genericSTM32F103C\Debug\core.a(exti.c.o)
 .debug_frame   0x00000900       0x20 C:\Users\20131\AppData\Local\Temp\VMBuilds\new_LMDZ\STM32_genericSTM32F103C\Debug\core.a(exti_f1.c.o)
 .debug_frame   0x00000920       0x20 C:\Users\20131\AppData\Local\Temp\VMBuilds\new_LMDZ\STM32_genericSTM32F103C\Debug\core.a(flash.c.o)
 .debug_frame   0x00000940       0x7c C:\Users\20131\AppData\Local\Temp\VMBuilds\new_LMDZ\STM32_genericSTM32F103C\Debug\core.a(gpio_f1.c.o)
 .debug_frame   0x000009bc       0x9c C:\Users\20131\AppData\Local\Temp\VMBuilds\new_LMDZ\STM32_genericSTM32F103C\Debug\core.a(i2c_f1.c.o)
 .debug_frame   0x00000a58       0x5c C:\Users\20131\AppData\Local\Temp\VMBuilds\new_LMDZ\STM32_genericSTM32F103C\Debug\core.a(nvic.c.o)
 .debug_frame   0x00000ab4       0x70 C:\Users\20131\AppData\Local\Temp\VMBuilds\new_LMDZ\STM32_genericSTM32F103C\Debug\core.a(rcc.c.o)
 .debug_frame   0x00000b24       0xa4 C:\Users\20131\AppData\Local\Temp\VMBuilds\new_LMDZ\STM32_genericSTM32F103C\Debug\core.a(rcc_f1.c.o)
 .debug_frame   0x00000bc8       0x68 C:\Users\20131\AppData\Local\Temp\VMBuilds\new_LMDZ\STM32_genericSTM32F103C\Debug\core.a(systick.c.o)
 .debug_frame   0x00000c30      0x1d4 C:\Users\20131\AppData\Local\Temp\VMBuilds\new_LMDZ\STM32_genericSTM32F103C\Debug\core.a(timer.c.o)
 .debug_frame   0x00000e04       0xe0 C:\Users\20131\AppData\Local\Temp\VMBuilds\new_LMDZ\STM32_genericSTM32F103C\Debug\core.a(usart_f1.c.o)
 .debug_frame   0x00000ee4       0x28 C:\Users\20131\AppData\Local\Temp\VMBuilds\new_LMDZ\STM32_genericSTM32F103C\Debug\core.a(usart_private.c.o)
 .debug_frame   0x00000f0c       0xc8 C:\Users\20131\AppData\Local\Temp\VMBuilds\new_LMDZ\STM32_genericSTM32F103C\Debug\core.a(util.c.o)
 .debug_frame   0x00000fd4       0x6c C:\Users\20131\AppData\Local\Temp\VMBuilds\new_LMDZ\STM32_genericSTM32F103C\Debug\core.a(usb.c.o)
 .debug_frame   0x00001040      0x2cc C:\Users\20131\AppData\Local\Temp\VMBuilds\new_LMDZ\STM32_genericSTM32F103C\Debug\core.a(usb_cdcacm.c.o)
 .debug_frame   0x0000130c       0x20 C:\Users\20131\AppData\Local\Temp\VMBuilds\new_LMDZ\STM32_genericSTM32F103C\Debug\core.a(usb_reg_map.c.o)
 .debug_frame   0x0000132c      0x1ac C:\Users\20131\AppData\Local\Temp\VMBuilds\new_LMDZ\STM32_genericSTM32F103C\Debug\core.a(usb_core.c.o)
 .debug_frame   0x000014d8       0x28 C:\Users\20131\AppData\Local\Temp\VMBuilds\new_LMDZ\STM32_genericSTM32F103C\Debug\core.a(usb_init.c.o)
 .debug_frame   0x00001500       0x44 C:\Users\20131\AppData\Local\Temp\VMBuilds\new_LMDZ\STM32_genericSTM32F103C\Debug\core.a(usb_mem.c.o)
 .debug_frame   0x00001544      0x3d0 C:\Users\20131\AppData\Local\Temp\VMBuilds\new_LMDZ\STM32_genericSTM32F103C\Debug\core.a(usb_regs.c.o)
 .debug_frame   0x00001914      0x10c C:\Users\20131\AppData\Local\Temp\VMBuilds\new_LMDZ\STM32_genericSTM32F103C\Debug\core.a(HardwareSerial.cpp.o)
 .debug_frame   0x00001a20       0x38 C:\Users\20131\AppData\Local\Temp\VMBuilds\new_LMDZ\STM32_genericSTM32F103C\Debug\core.a(main.cpp.o)
 .debug_frame   0x00001a58      0x378 C:\Users\20131\AppData\Local\Temp\VMBuilds\new_LMDZ\STM32_genericSTM32F103C\Debug\core.a(Print.cpp.o)
 .debug_frame   0x00001dd0       0x20 C:\Users\20131\AppData\Local\Temp\VMBuilds\new_LMDZ\STM32_genericSTM32F103C\Debug\core.a(wirish_analog.cpp.o)
 .debug_frame   0x00001df0       0x4c C:\Users\20131\AppData\Local\Temp\VMBuilds\new_LMDZ\STM32_genericSTM32F103C\Debug\core.a(wirish_time.cpp.o)
 .debug_frame   0x00001e3c       0x2c C:\Users\20131\AppData\Local\Temp\VMBuilds\new_LMDZ\STM32_genericSTM32F103C\Debug\core.a(wirish_digital_f1.cpp.o)
 .debug_frame   0x00001e68       0x20 C:\Users\20131\AppData\Local\Temp\VMBuilds\new_LMDZ\STM32_genericSTM32F103C\Debug\core.a(hooks.c.o)
 .debug_frame   0x00001e88       0x30 C:\Users\20131\AppData\Local\Temp\VMBuilds\new_LMDZ\STM32_genericSTM32F103C\Debug\core.a(dma.c.o)
 .debug_frame   0x00001eb8       0x28 C:\Users\20131\AppData\Local\Temp\VMBuilds\new_LMDZ\STM32_genericSTM32F103C\Debug\core.a(gpio.c.o)
 .debug_frame   0x00001ee0       0xe0 C:\Users\20131\AppData\Local\Temp\VMBuilds\new_LMDZ\STM32_genericSTM32F103C\Debug\core.a(i2c.c.o)
 .debug_frame   0x00001fc0       0xb4 C:\Users\20131\AppData\Local\Temp\VMBuilds\new_LMDZ\STM32_genericSTM32F103C\Debug\core.a(usart.c.o)
 .debug_frame   0x00002074       0x20 C:\Users\20131\AppData\Local\Temp\VMBuilds\new_LMDZ\STM32_genericSTM32F103C\Debug\core.a(cxxabi-compat.cpp.o)
 .debug_frame   0x00002094       0x2c c:/users/20131/appdata/local/arduino15/packages/arduino/tools/arm-none-eabi-gcc/4.8.3-2014q1/bin/../lib/gcc/arm-none-eabi/4.8.3/armv7-m\libgcc.a(_fixdfdi.o)
 .debug_frame   0x000020c0       0x2c c:/users/20131/appdata/local/arduino15/packages/arduino/tools/arm-none-eabi-gcc/4.8.3-2014q1/bin/../lib/gcc/arm-none-eabi/4.8.3/armv7-m\libgcc.a(_fixunsdfdi.o)
 .debug_frame   0x000020ec       0x58 c:/users/20131/appdata/local/arduino15/packages/arduino/tools/arm-none-eabi-gcc/4.8.3-2014q1/bin/../lib/gcc/arm-none-eabi/4.8.3/armv7-m\libgcc.a(bpabi.o)
 .debug_frame   0x00002144       0x34 c:/users/20131/appdata/local/arduino15/packages/arduino/tools/arm-none-eabi-gcc/4.8.3-2014q1/bin/../lib/gcc/arm-none-eabi/4.8.3/armv7-m\libgcc.a(_divdi3.o)
 .debug_frame   0x00002178       0x34 c:/users/20131/appdata/local/arduino15/packages/arduino/tools/arm-none-eabi-gcc/4.8.3-2014q1/bin/../lib/gcc/arm-none-eabi/4.8.3/armv7-m\libgcc.a(_udivdi3.o)
 .debug_frame   0x000021ac       0x20 c:/users/20131/appdata/local/arduino15/packages/arduino/tools/arm-none-eabi-gcc/4.8.3-2014q1/bin/../lib/gcc/arm-none-eabi/4.8.3/../../../../arm-none-eabi/lib/armv7-m\libc.a(lib_a-errno.o)
 .debug_frame   0x000021cc       0x28 c:/users/20131/appdata/local/arduino15/packages/arduino/tools/arm-none-eabi-gcc/4.8.3-2014q1/bin/../lib/gcc/arm-none-eabi/4.8.3/../../../../arm-none-eabi/lib/armv7-m\libc.a(lib_a-exit.o)
 .debug_frame   0x000021f4       0x2c c:/users/20131/appdata/local/arduino15/packages/arduino/tools/arm-none-eabi-gcc/4.8.3-2014q1/bin/../lib/gcc/arm-none-eabi/4.8.3/../../../../arm-none-eabi/lib/armv7-m\libc.a(lib_a-init.o)
 .debug_frame   0x00002220       0x2c c:/users/20131/appdata/local/arduino15/packages/arduino/tools/arm-none-eabi-gcc/4.8.3-2014q1/bin/../lib/gcc/arm-none-eabi/4.8.3/../../../../arm-none-eabi/lib/armv7-m\libc.a(lib_a-memset.o)
 .debug_frame   0x0000224c       0x20 c:/users/20131/appdata/local/arduino15/packages/arduino/tools/arm-none-eabi-gcc/4.8.3-2014q1/bin/../lib/gcc/arm-none-eabi/4.8.3/../../../../arm-none-eabi/lib/armv7-m\libc.a(lib_a-strlen.o)
 .debug_frame   0x0000226c       0x48 c:/users/20131/appdata/local/arduino15/packages/arduino/tools/arm-none-eabi-gcc/4.8.3-2014q1/bin/../lib/gcc/arm-none-eabi/4.8.3/../../../../arm-none-eabi/lib/armv7-m\libc.a(lib_a-__call_atexit.o)
 .debug_frame   0x000022b4       0x20 c:/users/20131/appdata/local/arduino15/packages/arduino/tools/arm-none-eabi-gcc/4.8.3-2014q1/bin/../lib/gcc/arm-none-eabi/4.8.3/../../../../arm-none-eabi/lib/armv7-m\libc.a(lib_a-atexit.o)
 .debug_frame   0x000022d4       0x2c c:/users/20131/appdata/local/arduino15/packages/arduino/tools/arm-none-eabi-gcc/4.8.3-2014q1/bin/../lib/gcc/arm-none-eabi/4.8.3/../../../../arm-none-eabi/lib/armv7-m\libc.a(lib_a-fini.o)
 .debug_frame   0x00002300       0x30 c:/users/20131/appdata/local/arduino15/packages/arduino/tools/arm-none-eabi-gcc/4.8.3-2014q1/bin/../lib/gcc/arm-none-eabi/4.8.3/../../../../arm-none-eabi/lib/armv7-m\libc.a(lib_a-__atexit.o)

.debug_str      0x00000000     0x7687
 *(.debug_str)
 .debug_str     0x00000000      0x4c5 new_LMDZ.cpp.o
                                0x563 (size before relaxing)
 .debug_str     0x000004c5       0x8e aveRage.cpp.o
                                0x207 (size before relaxing)
 .debug_str     0x00000553       0x9f cmpValues.cpp.o
                                0x211 (size before relaxing)
 .debug_str     0x000005f2       0xc6 draw.cpp.o
                                0x2f7 (size before relaxing)
 .debug_str     0x000006b8       0x91 getValue.cpp.o
                                0x32d (size before relaxing)
 .debug_str     0x00000749       0xb5 quartileDeviation.cpp.o
                                0x265 (size before relaxing)
 .debug_str     0x000007fe       0x98 rearrange.cpp.o
                                0x21f (size before relaxing)
 .debug_str     0x00000896       0xd3 valuesPrint.cpp.o
                                0x3c3 (size before relaxing)
 .debug_str     0x00000969      0x9f4 C:\Users\20131\AppData\Local\Temp\VMBCore\arduino16x\7c3dd42e408ebb1ce4dae06851a5a8aa\variant\board.cpp.o
                                0xcf5 (size before relaxing)
 .debug_str     0x0000135d      0x759 C:\Users\20131\AppData\Local\Temp\VMBCore\arduino16x\7c3dd42e408ebb1ce4dae06851a5a8aa\variant\boards.cpp.o
                               0x1123 (size before relaxing)
 .debug_str     0x00001ab6      0x447 C:\Users\20131\AppData\Local\Temp\VMBCore\arduino16x\7c3dd42e408ebb1ce4dae06851a5a8aa\variant\boards_setup.cpp.o
                                0xae5 (size before relaxing)
 .debug_str     0x00001efd      0x1ae C:\Users\20131\AppData\Local\Temp\VMBCore\arduino16x\7c3dd42e408ebb1ce4dae06851a5a8aa\variant\start_c.c.o
                                0x1ec (size before relaxing)
 .debug_str     0x000020ab      0x1c0 C:\Users\20131\AppData\Local\Temp\VMBCore\arduino16x\7c3dd42e408ebb1ce4dae06851a5a8aa\variant\syscalls.c.o
                                0x36e (size before relaxing)
 .debug_str     0x0000226b      0x212 C:\Users\20131\AppData\Local\Temp\VMBuilds\new_LMDZ\STM32_genericSTM32F103C\Debug\core.a(adc.c.o)
                                0xab6 (size before relaxing)
 .debug_str     0x0000247d      0x1f8 C:\Users\20131\AppData\Local\Temp\VMBuilds\new_LMDZ\STM32_genericSTM32F103C\Debug\core.a(adc_f1.c.o)
                                0xdd1 (size before relaxing)
 .debug_str     0x00002675      0xac9 C:\Users\20131\AppData\Local\Temp\VMBuilds\new_LMDZ\STM32_genericSTM32F103C\Debug\core.a(dma_f1.c.o)
                               0x1393 (size before relaxing)
 .debug_str     0x0000313e      0x235 C:\Users\20131\AppData\Local\Temp\VMBuilds\new_LMDZ\STM32_genericSTM32F103C\Debug\core.a(exti.c.o)
                                0x930 (size before relaxing)
 .debug_str     0x00003373       0x92 C:\Users\20131\AppData\Local\Temp\VMBuilds\new_LMDZ\STM32_genericSTM32F103C\Debug\core.a(exti_f1.c.o)
                                0x2db (size before relaxing)
 .debug_str     0x00003405       0x5f C:\Users\20131\AppData\Local\Temp\VMBuilds\new_LMDZ\STM32_genericSTM32F103C\Debug\core.a(flash.c.o)
                                0x1fa (size before relaxing)
 .debug_str     0x00003464      0x299 C:\Users\20131\AppData\Local\Temp\VMBuilds\new_LMDZ\STM32_genericSTM32F103C\Debug\core.a(gpio_f1.c.o)
                                0x7b2 (size before relaxing)
 .debug_str     0x000036fd      0x22d C:\Users\20131\AppData\Local\Temp\VMBuilds\new_LMDZ\STM32_genericSTM32F103C\Debug\core.a(i2c_f1.c.o)
                                0xd0f (size before relaxing)
 .debug_str     0x0000392a       0xce C:\Users\20131\AppData\Local\Temp\VMBuilds\new_LMDZ\STM32_genericSTM32F103C\Debug\core.a(nvic.c.o)
                                0x703 (size before relaxing)
 .debug_str     0x000039f8       0xf2 C:\Users\20131\AppData\Local\Temp\VMBuilds\new_LMDZ\STM32_genericSTM32F103C\Debug\core.a(rcc.c.o)
                                0x54f (size before relaxing)
 .debug_str     0x00003aea       0xe6 C:\Users\20131\AppData\Local\Temp\VMBuilds\new_LMDZ\STM32_genericSTM32F103C\Debug\core.a(rcc_f1.c.o)
                                0x809 (size before relaxing)
 .debug_str     0x00003bd0       0xcb C:\Users\20131\AppData\Local\Temp\VMBuilds\new_LMDZ\STM32_genericSTM32F103C\Debug\core.a(systick.c.o)
                                0x260 (size before relaxing)
 .debug_str     0x00003c9b      0x3bb C:\Users\20131\AppData\Local\Temp\VMBuilds\new_LMDZ\STM32_genericSTM32F103C\Debug\core.a(timer.c.o)
                                0xeb4 (size before relaxing)
 .debug_str     0x00004056      0x18e C:\Users\20131\AppData\Local\Temp\VMBuilds\new_LMDZ\STM32_genericSTM32F103C\Debug\core.a(usart_f1.c.o)
                                0xaba (size before relaxing)
 .debug_str     0x000041e4       0x5b C:\Users\20131\AppData\Local\Temp\VMBuilds\new_LMDZ\STM32_genericSTM32F103C\Debug\core.a(usart_private.c.o)
                                0x885 (size before relaxing)
 .debug_str     0x0000423f      0x110 C:\Users\20131\AppData\Local\Temp\VMBuilds\new_LMDZ\STM32_genericSTM32F103C\Debug\core.a(util.c.o)
                                0xa32 (size before relaxing)
 .debug_str     0x0000434f      0x604 C:\Users\20131\AppData\Local\Temp\VMBuilds\new_LMDZ\STM32_genericSTM32F103C\Debug\core.a(usb.c.o)
                                0xa68 (size before relaxing)
 .debug_str     0x00004953      0x991 C:\Users\20131\AppData\Local\Temp\VMBuilds\new_LMDZ\STM32_genericSTM32F103C\Debug\core.a(usb_cdcacm.c.o)
                               0x182e (size before relaxing)
 .debug_str     0x000052e4       0x88 C:\Users\20131\AppData\Local\Temp\VMBuilds\new_LMDZ\STM32_genericSTM32F103C\Debug\core.a(usb_reg_map.c.o)
                                0x283 (size before relaxing)
 .debug_str     0x0000536c      0x488 C:\Users\20131\AppData\Local\Temp\VMBuilds\new_LMDZ\STM32_genericSTM32F103C\Debug\core.a(usb_core.c.o)
                                0xabb (size before relaxing)
 .debug_str     0x000057f4       0x8d C:\Users\20131\AppData\Local\Temp\VMBuilds\new_LMDZ\STM32_genericSTM32F103C\Debug\core.a(usb_init.c.o)
                                0x51f (size before relaxing)
 .debug_str     0x00005881       0x91 C:\Users\20131\AppData\Local\Temp\VMBuilds\new_LMDZ\STM32_genericSTM32F103C\Debug\core.a(usb_mem.c.o)
                                0x1d5 (size before relaxing)
 .debug_str     0x00005912      0x3d2 C:\Users\20131\AppData\Local\Temp\VMBuilds\new_LMDZ\STM32_genericSTM32F103C\Debug\core.a(usb_regs.c.o)
                                0x55d (size before relaxing)
 .debug_str     0x00005ce4      0xf70 C:\Users\20131\AppData\Local\Temp\VMBuilds\new_LMDZ\STM32_genericSTM32F103C\Debug\core.a(HardwareSerial.cpp.o)
                               0x1bd3 (size before relaxing)
 .debug_str     0x00006c54       0x5f C:\Users\20131\AppData\Local\Temp\VMBuilds\new_LMDZ\STM32_genericSTM32F103C\Debug\core.a(main.cpp.o)
                                0x18f (size before relaxing)
 .debug_str     0x00006cb3      0x3c0 C:\Users\20131\AppData\Local\Temp\VMBuilds\new_LMDZ\STM32_genericSTM32F103C\Debug\core.a(Print.cpp.o)
                                0xfa1 (size before relaxing)
 .debug_str     0x00007073       0x54 C:\Users\20131\AppData\Local\Temp\VMBuilds\new_LMDZ\STM32_genericSTM32F103C\Debug\core.a(wirish_analog.cpp.o)
                                0xa69 (size before relaxing)
 .debug_str     0x000070c7       0xbc C:\Users\20131\AppData\Local\Temp\VMBuilds\new_LMDZ\STM32_genericSTM32F103C\Debug\core.a(wirish_time.cpp.o)
                                0x31f (size before relaxing)
 .debug_str     0x00007183       0x6b C:\Users\20131\AppData\Local\Temp\VMBuilds\new_LMDZ\STM32_genericSTM32F103C\Debug\core.a(wirish_digital_f1.cpp.o)
                                0xc3e (size before relaxing)
 .debug_str     0x000071ee       0x52 C:\Users\20131\AppData\Local\Temp\VMBuilds\new_LMDZ\STM32_genericSTM32F103C\Debug\core.a(hooks.c.o)
                                0x11c (size before relaxing)
 .debug_str     0x00007240      0x129 C:\Users\20131\AppData\Local\Temp\VMBuilds\new_LMDZ\STM32_genericSTM32F103C\Debug\core.a(dma.c.o)
                                0xa2e (size before relaxing)
 .debug_str     0x00007369       0x52 C:\Users\20131\AppData\Local\Temp\VMBuilds\new_LMDZ\STM32_genericSTM32F103C\Debug\core.a(gpio.c.o)
                                0x43e (size before relaxing)
 .debug_str     0x000073bb      0x1c1 C:\Users\20131\AppData\Local\Temp\VMBuilds\new_LMDZ\STM32_genericSTM32F103C\Debug\core.a(i2c.c.o)
                                0xe66 (size before relaxing)
 .debug_str     0x0000757c       0xa4 C:\Users\20131\AppData\Local\Temp\VMBuilds\new_LMDZ\STM32_genericSTM32F103C\Debug\core.a(usart.c.o)
                                0x9c6 (size before relaxing)
 .debug_str     0x00007620       0x67 C:\Users\20131\AppData\Local\Temp\VMBuilds\new_LMDZ\STM32_genericSTM32F103C\Debug\core.a(cxxabi-compat.cpp.o)
                                0x166 (size before relaxing)

.debug_loc      0x00000000     0x8c31
 *(.debug_loc)
 .debug_loc     0x00000000       0x14 new_LMDZ.cpp.o
 .debug_loc     0x00000014       0xbc aveRage.cpp.o
 .debug_loc     0x000000d0      0x112 cmpValues.cpp.o
 .debug_loc     0x000001e2       0xcf draw.cpp.o
 .debug_loc     0x000002b1       0x96 getValue.cpp.o
 .debug_loc     0x00000347       0xfe quartileDeviation.cpp.o
 .debug_loc     0x00000445       0xea rearrange.cpp.o
 .debug_loc     0x0000052f      0x11a valuesPrint.cpp.o
 .debug_loc     0x00000649      0x246 C:\Users\20131\AppData\Local\Temp\VMBCore\arduino16x\7c3dd42e408ebb1ce4dae06851a5a8aa\variant\boards.cpp.o
 .debug_loc     0x0000088f       0xa5 C:\Users\20131\AppData\Local\Temp\VMBCore\arduino16x\7c3dd42e408ebb1ce4dae06851a5a8aa\variant\start_c.c.o
 .debug_loc     0x00000934      0x38a C:\Users\20131\AppData\Local\Temp\VMBCore\arduino16x\7c3dd42e408ebb1ce4dae06851a5a8aa\variant\syscalls.c.o
 .debug_loc     0x00000cbe      0x145 C:\Users\20131\AppData\Local\Temp\VMBuilds\new_LMDZ\STM32_genericSTM32F103C\Debug\core.a(adc.c.o)
 .debug_loc     0x00000e03      0x2c7 C:\Users\20131\AppData\Local\Temp\VMBuilds\new_LMDZ\STM32_genericSTM32F103C\Debug\core.a(adc_f1.c.o)
 .debug_loc     0x000010ca      0xe94 C:\Users\20131\AppData\Local\Temp\VMBuilds\new_LMDZ\STM32_genericSTM32F103C\Debug\core.a(dma_f1.c.o)
 .debug_loc     0x00001f5e      0x6f0 C:\Users\20131\AppData\Local\Temp\VMBuilds\new_LMDZ\STM32_genericSTM32F103C\Debug\core.a(exti.c.o)
 .debug_loc     0x0000264e       0x42 C:\Users\20131\AppData\Local\Temp\VMBuilds\new_LMDZ\STM32_genericSTM32F103C\Debug\core.a(exti_f1.c.o)
 .debug_loc     0x00002690       0x3f C:\Users\20131\AppData\Local\Temp\VMBuilds\new_LMDZ\STM32_genericSTM32F103C\Debug\core.a(flash.c.o)
 .debug_loc     0x000026cf      0x267 C:\Users\20131\AppData\Local\Temp\VMBuilds\new_LMDZ\STM32_genericSTM32F103C\Debug\core.a(gpio_f1.c.o)
 .debug_loc     0x00002936      0x1c4 C:\Users\20131\AppData\Local\Temp\VMBuilds\new_LMDZ\STM32_genericSTM32F103C\Debug\core.a(i2c_f1.c.o)
 .debug_loc     0x00002afa      0x121 C:\Users\20131\AppData\Local\Temp\VMBuilds\new_LMDZ\STM32_genericSTM32F103C\Debug\core.a(nvic.c.o)
 .debug_loc     0x00002c1b      0x131 C:\Users\20131\AppData\Local\Temp\VMBuilds\new_LMDZ\STM32_genericSTM32F103C\Debug\core.a(rcc.c.o)
 .debug_loc     0x00002d4c      0x335 C:\Users\20131\AppData\Local\Temp\VMBuilds\new_LMDZ\STM32_genericSTM32F103C\Debug\core.a(rcc_f1.c.o)
 .debug_loc     0x00003081      0xcd7 C:\Users\20131\AppData\Local\Temp\VMBuilds\new_LMDZ\STM32_genericSTM32F103C\Debug\core.a(timer.c.o)
 .debug_loc     0x00003d58      0x2c6 C:\Users\20131\AppData\Local\Temp\VMBuilds\new_LMDZ\STM32_genericSTM32F103C\Debug\core.a(usart_f1.c.o)
 .debug_loc     0x0000401e       0x3f C:\Users\20131\AppData\Local\Temp\VMBuilds\new_LMDZ\STM32_genericSTM32F103C\Debug\core.a(usart_private.c.o)
 .debug_loc     0x0000405d      0x27f C:\Users\20131\AppData\Local\Temp\VMBuilds\new_LMDZ\STM32_genericSTM32F103C\Debug\core.a(util.c.o)
 .debug_loc     0x000042dc      0x4fc C:\Users\20131\AppData\Local\Temp\VMBuilds\new_LMDZ\STM32_genericSTM32F103C\Debug\core.a(usb.c.o)
 .debug_loc     0x000047d8      0xaab C:\Users\20131\AppData\Local\Temp\VMBuilds\new_LMDZ\STM32_genericSTM32F103C\Debug\core.a(usb_cdcacm.c.o)
 .debug_loc     0x00005283       0xf5 C:\Users\20131\AppData\Local\Temp\VMBuilds\new_LMDZ\STM32_genericSTM32F103C\Debug\core.a(usb_reg_map.c.o)
 .debug_loc     0x00005378      0x7a1 C:\Users\20131\AppData\Local\Temp\VMBuilds\new_LMDZ\STM32_genericSTM32F103C\Debug\core.a(usb_core.c.o)
 .debug_loc     0x00005b19      0x293 C:\Users\20131\AppData\Local\Temp\VMBuilds\new_LMDZ\STM32_genericSTM32F103C\Debug\core.a(usb_mem.c.o)
 .debug_loc     0x00005dac      0xbab C:\Users\20131\AppData\Local\Temp\VMBuilds\new_LMDZ\STM32_genericSTM32F103C\Debug\core.a(usb_regs.c.o)
 .debug_loc     0x00006957      0x39a C:\Users\20131\AppData\Local\Temp\VMBuilds\new_LMDZ\STM32_genericSTM32F103C\Debug\core.a(HardwareSerial.cpp.o)
 .debug_loc     0x00006cf1     0x10a7 C:\Users\20131\AppData\Local\Temp\VMBuilds\new_LMDZ\STM32_genericSTM32F103C\Debug\core.a(Print.cpp.o)
 .debug_loc     0x00007d98       0x3f C:\Users\20131\AppData\Local\Temp\VMBuilds\new_LMDZ\STM32_genericSTM32F103C\Debug\core.a(wirish_analog.cpp.o)
 .debug_loc     0x00007dd7       0x82 C:\Users\20131\AppData\Local\Temp\VMBuilds\new_LMDZ\STM32_genericSTM32F103C\Debug\core.a(wirish_time.cpp.o)
 .debug_loc     0x00007e59      0x137 C:\Users\20131\AppData\Local\Temp\VMBuilds\new_LMDZ\STM32_genericSTM32F103C\Debug\core.a(wirish_digital_f1.cpp.o)
 .debug_loc     0x00007f90       0x42 C:\Users\20131\AppData\Local\Temp\VMBuilds\new_LMDZ\STM32_genericSTM32F103C\Debug\core.a(dma.c.o)
 .debug_loc     0x00007fd2       0x2c C:\Users\20131\AppData\Local\Temp\VMBuilds\new_LMDZ\STM32_genericSTM32F103C\Debug\core.a(gpio.c.o)
 .debug_loc     0x00007ffe      0x884 C:\Users\20131\AppData\Local\Temp\VMBuilds\new_LMDZ\STM32_genericSTM32F103C\Debug\core.a(i2c.c.o)
 .debug_loc     0x00008882      0x3af C:\Users\20131\AppData\Local\Temp\VMBuilds\new_LMDZ\STM32_genericSTM32F103C\Debug\core.a(usart.c.o)

.debug_macinfo
 *(.debug_macinfo)

.debug_weaknames
 *(.debug_weaknames)

.debug_funcnames
 *(.debug_funcnames)

.debug_typenames
 *(.debug_typenames)

.debug_varnames
 *(.debug_varnames)

.note.gnu.arm.ident
 *(.note.gnu.arm.ident)

.ARM.attributes
                0x00000000       0x29
 *(.ARM.attributes)
 .ARM.attributes
                0x00000000       0x1d c:/users/20131/appdata/local/arduino15/packages/arduino/tools/arm-none-eabi-gcc/4.8.3-2014q1/bin/../lib/gcc/arm-none-eabi/4.8.3/armv7-m/crti.o
 .ARM.attributes
                0x0000001d       0x2d c:/users/20131/appdata/local/arduino15/packages/arduino/tools/arm-none-eabi-gcc/4.8.3-2014q1/bin/../lib/gcc/arm-none-eabi/4.8.3/armv7-m/crtbegin.o
 .ARM.attributes
                0x0000004a       0x1b c:/users/20131/appdata/local/arduino15/packages/arduino/tools/arm-none-eabi-gcc/4.8.3-2014q1/bin/../lib/gcc/arm-none-eabi/4.8.3/../../../../arm-none-eabi/lib/armv7-m/crt0.o
 .ARM.attributes
                0x00000065       0x33 new_LMDZ.cpp.o
 .ARM.attributes
                0x00000098       0x33 aveRage.cpp.o
 .ARM.attributes
                0x000000cb       0x33 cmpValues.cpp.o
 .ARM.attributes
                0x000000fe       0x33 draw.cpp.o
 .ARM.attributes
                0x00000131       0x33 getValue.cpp.o
 .ARM.attributes
                0x00000164       0x33 quartileDeviation.cpp.o
 .ARM.attributes
                0x00000197       0x33 rearrange.cpp.o
 .ARM.attributes
                0x000001ca       0x33 valuesPrint.cpp.o
 .ARM.attributes
                0x000001fd       0x33 C:\Users\20131\AppData\Local\Temp\VMBCore\arduino16x\7c3dd42e408ebb1ce4dae06851a5a8aa\variant\board.cpp.o
 .ARM.attributes
                0x00000230       0x33 C:\Users\20131\AppData\Local\Temp\VMBCore\arduino16x\7c3dd42e408ebb1ce4dae06851a5a8aa\variant\boards.cpp.o
 .ARM.attributes
                0x00000263       0x33 C:\Users\20131\AppData\Local\Temp\VMBCore\arduino16x\7c3dd42e408ebb1ce4dae06851a5a8aa\variant\boards_setup.cpp.o
 .ARM.attributes
                0x00000296       0x1b C:\Users\20131\AppData\Local\Temp\VMBCore\arduino16x\7c3dd42e408ebb1ce4dae06851a5a8aa\variant\start.S.o
 .ARM.attributes
                0x000002b1       0x33 C:\Users\20131\AppData\Local\Temp\VMBCore\arduino16x\7c3dd42e408ebb1ce4dae06851a5a8aa\variant\start_c.c.o
 .ARM.attributes
                0x000002e4       0x33 C:\Users\20131\AppData\Local\Temp\VMBCore\arduino16x\7c3dd42e408ebb1ce4dae06851a5a8aa\variant\syscalls.c.o
 .ARM.attributes
                0x00000317       0x1b C:\Users\20131\AppData\Local\Temp\VMBuilds\new_LMDZ\STM32_genericSTM32F103C\Debug\core.a(exc.S.o)
 .ARM.attributes
                0x00000332       0x1b C:\Users\20131\AppData\Local\Temp\VMBuilds\new_LMDZ\STM32_genericSTM32F103C\Debug\core.a(isrs.S.o)
 .ARM.attributes
                0x0000034d       0x1b C:\Users\20131\AppData\Local\Temp\VMBuilds\new_LMDZ\STM32_genericSTM32F103C\Debug\core.a(vector_table.S.o)
 .ARM.attributes
                0x00000368       0x33 C:\Users\20131\AppData\Local\Temp\VMBuilds\new_LMDZ\STM32_genericSTM32F103C\Debug\core.a(adc.c.o)
 .ARM.attributes
                0x0000039b       0x33 C:\Users\20131\AppData\Local\Temp\VMBuilds\new_LMDZ\STM32_genericSTM32F103C\Debug\core.a(adc_f1.c.o)
 .ARM.attributes
                0x000003ce       0x33 C:\Users\20131\AppData\Local\Temp\VMBuilds\new_LMDZ\STM32_genericSTM32F103C\Debug\core.a(dma_f1.c.o)
 .ARM.attributes
                0x00000401       0x33 C:\Users\20131\AppData\Local\Temp\VMBuilds\new_LMDZ\STM32_genericSTM32F103C\Debug\core.a(exti.c.o)
 .ARM.attributes
                0x00000434       0x33 C:\Users\20131\AppData\Local\Temp\VMBuilds\new_LMDZ\STM32_genericSTM32F103C\Debug\core.a(exti_f1.c.o)
 .ARM.attributes
                0x00000467       0x33 C:\Users\20131\AppData\Local\Temp\VMBuilds\new_LMDZ\STM32_genericSTM32F103C\Debug\core.a(flash.c.o)
 .ARM.attributes
                0x0000049a       0x33 C:\Users\20131\AppData\Local\Temp\VMBuilds\new_LMDZ\STM32_genericSTM32F103C\Debug\core.a(gpio_f1.c.o)
 .ARM.attributes
                0x000004cd       0x33 C:\Users\20131\AppData\Local\Temp\VMBuilds\new_LMDZ\STM32_genericSTM32F103C\Debug\core.a(i2c_f1.c.o)
 .ARM.attributes
                0x00000500       0x33 C:\Users\20131\AppData\Local\Temp\VMBuilds\new_LMDZ\STM32_genericSTM32F103C\Debug\core.a(nvic.c.o)
 .ARM.attributes
                0x00000533       0x33 C:\Users\20131\AppData\Local\Temp\VMBuilds\new_LMDZ\STM32_genericSTM32F103C\Debug\core.a(rcc.c.o)
 .ARM.attributes
                0x00000566       0x33 C:\Users\20131\AppData\Local\Temp\VMBuilds\new_LMDZ\STM32_genericSTM32F103C\Debug\core.a(rcc_f1.c.o)
 .ARM.attributes
                0x00000599       0x33 C:\Users\20131\AppData\Local\Temp\VMBuilds\new_LMDZ\STM32_genericSTM32F103C\Debug\core.a(systick.c.o)
 .ARM.attributes
                0x000005cc       0x33 C:\Users\20131\AppData\Local\Temp\VMBuilds\new_LMDZ\STM32_genericSTM32F103C\Debug\core.a(timer.c.o)
 .ARM.attributes
                0x000005ff       0x33 C:\Users\20131\AppData\Local\Temp\VMBuilds\new_LMDZ\STM32_genericSTM32F103C\Debug\core.a(usart_f1.c.o)
 .ARM.attributes
                0x00000632       0x33 C:\Users\20131\AppData\Local\Temp\VMBuilds\new_LMDZ\STM32_genericSTM32F103C\Debug\core.a(usart_private.c.o)
 .ARM.attributes
                0x00000665       0x33 C:\Users\20131\AppData\Local\Temp\VMBuilds\new_LMDZ\STM32_genericSTM32F103C\Debug\core.a(util.c.o)
 .ARM.attributes
                0x00000698       0x33 C:\Users\20131\AppData\Local\Temp\VMBuilds\new_LMDZ\STM32_genericSTM32F103C\Debug\core.a(usb.c.o)
 .ARM.attributes
                0x000006cb       0x33 C:\Users\20131\AppData\Local\Temp\VMBuilds\new_LMDZ\STM32_genericSTM32F103C\Debug\core.a(usb_cdcacm.c.o)
 .ARM.attributes
                0x000006fe       0x33 C:\Users\20131\AppData\Local\Temp\VMBuilds\new_LMDZ\STM32_genericSTM32F103C\Debug\core.a(usb_reg_map.c.o)
 .ARM.attributes
                0x00000731       0x33 C:\Users\20131\AppData\Local\Temp\VMBuilds\new_LMDZ\STM32_genericSTM32F103C\Debug\core.a(usb_core.c.o)
 .ARM.attributes
                0x00000764       0x33 C:\Users\20131\AppData\Local\Temp\VMBuilds\new_LMDZ\STM32_genericSTM32F103C\Debug\core.a(usb_init.c.o)
 .ARM.attributes
                0x00000797       0x33 C:\Users\20131\AppData\Local\Temp\VMBuilds\new_LMDZ\STM32_genericSTM32F103C\Debug\core.a(usb_mem.c.o)
 .ARM.attributes
                0x000007ca       0x33 C:\Users\20131\AppData\Local\Temp\VMBuilds\new_LMDZ\STM32_genericSTM32F103C\Debug\core.a(usb_regs.c.o)
 .ARM.attributes
                0x000007fd       0x33 C:\Users\20131\AppData\Local\Temp\VMBuilds\new_LMDZ\STM32_genericSTM32F103C\Debug\core.a(HardwareSerial.cpp.o)
 .ARM.attributes
                0x00000830       0x33 C:\Users\20131\AppData\Local\Temp\VMBuilds\new_LMDZ\STM32_genericSTM32F103C\Debug\core.a(main.cpp.o)
 .ARM.attributes
                0x00000863       0x33 C:\Users\20131\AppData\Local\Temp\VMBuilds\new_LMDZ\STM32_genericSTM32F103C\Debug\core.a(Print.cpp.o)
 .ARM.attributes
                0x00000896       0x33 C:\Users\20131\AppData\Local\Temp\VMBuilds\new_LMDZ\STM32_genericSTM32F103C\Debug\core.a(wirish_analog.cpp.o)
 .ARM.attributes
                0x000008c9       0x33 C:\Users\20131\AppData\Local\Temp\VMBuilds\new_LMDZ\STM32_genericSTM32F103C\Debug\core.a(wirish_time.cpp.o)
 .ARM.attributes
                0x000008fc       0x33 C:\Users\20131\AppData\Local\Temp\VMBuilds\new_LMDZ\STM32_genericSTM32F103C\Debug\core.a(wirish_digital_f1.cpp.o)
 .ARM.attributes
                0x0000092f       0x33 C:\Users\20131\AppData\Local\Temp\VMBuilds\new_LMDZ\STM32_genericSTM32F103C\Debug\core.a(hooks.c.o)
 .ARM.attributes
                0x00000962       0x33 C:\Users\20131\AppData\Local\Temp\VMBuilds\new_LMDZ\STM32_genericSTM32F103C\Debug\core.a(dma.c.o)
 .ARM.attributes
                0x00000995       0x33 C:\Users\20131\AppData\Local\Temp\VMBuilds\new_LMDZ\STM32_genericSTM32F103C\Debug\core.a(gpio.c.o)
 .ARM.attributes
                0x000009c8       0x33 C:\Users\20131\AppData\Local\Temp\VMBuilds\new_LMDZ\STM32_genericSTM32F103C\Debug\core.a(i2c.c.o)
 .ARM.attributes
                0x000009fb       0x33 C:\Users\20131\AppData\Local\Temp\VMBuilds\new_LMDZ\STM32_genericSTM32F103C\Debug\core.a(usart.c.o)
 .ARM.attributes
                0x00000a2e       0x33 C:\Users\20131\AppData\Local\Temp\VMBuilds\new_LMDZ\STM32_genericSTM32F103C\Debug\core.a(cxxabi-compat.cpp.o)
 .ARM.attributes
                0x00000a61       0x1d c:/users/20131/appdata/local/arduino15/packages/arduino/tools/arm-none-eabi-gcc/4.8.3-2014q1/bin/../lib/gcc/arm-none-eabi/4.8.3/armv7-m\libgcc.a(_arm_addsubdf3.o)
 .ARM.attributes
                0x00000a7e       0x1d c:/users/20131/appdata/local/arduino15/packages/arduino/tools/arm-none-eabi-gcc/4.8.3-2014q1/bin/../lib/gcc/arm-none-eabi/4.8.3/armv7-m\libgcc.a(_arm_muldivdf3.o)
 .ARM.attributes
                0x00000a9b       0x1d c:/users/20131/appdata/local/arduino15/packages/arduino/tools/arm-none-eabi-gcc/4.8.3-2014q1/bin/../lib/gcc/arm-none-eabi/4.8.3/armv7-m\libgcc.a(_arm_cmpdf2.o)
 .ARM.attributes
                0x00000ab8       0x1d c:/users/20131/appdata/local/arduino15/packages/arduino/tools/arm-none-eabi-gcc/4.8.3-2014q1/bin/../lib/gcc/arm-none-eabi/4.8.3/armv7-m\libgcc.a(_arm_fixdfsi.o)
 .ARM.attributes
                0x00000ad5       0x1d c:/users/20131/appdata/local/arduino15/packages/arduino/tools/arm-none-eabi-gcc/4.8.3-2014q1/bin/../lib/gcc/arm-none-eabi/4.8.3/armv7-m\libgcc.a(_aeabi_uldivmod.o)
 .ARM.attributes
                0x00000af2       0x2d c:/users/20131/appdata/local/arduino15/packages/arduino/tools/arm-none-eabi-gcc/4.8.3-2014q1/bin/../lib/gcc/arm-none-eabi/4.8.3/armv7-m\libgcc.a(_fixdfdi.o)
 .ARM.attributes
                0x00000b1f       0x2d c:/users/20131/appdata/local/arduino15/packages/arduino/tools/arm-none-eabi-gcc/4.8.3-2014q1/bin/../lib/gcc/arm-none-eabi/4.8.3/armv7-m\libgcc.a(_fixunsdfdi.o)
 .ARM.attributes
                0x00000b4c       0x2d c:/users/20131/appdata/local/arduino15/packages/arduino/tools/arm-none-eabi-gcc/4.8.3-2014q1/bin/../lib/gcc/arm-none-eabi/4.8.3/armv7-m\libgcc.a(bpabi.o)
 .ARM.attributes
                0x00000b79       0x1d c:/users/20131/appdata/local/arduino15/packages/arduino/tools/arm-none-eabi-gcc/4.8.3-2014q1/bin/../lib/gcc/arm-none-eabi/4.8.3/armv7-m\libgcc.a(_dvmd_tls.o)
 .ARM.attributes
                0x00000b96       0x1d c:/users/20131/appdata/local/arduino15/packages/arduino/tools/arm-none-eabi-gcc/4.8.3-2014q1/bin/../lib/gcc/arm-none-eabi/4.8.3/armv7-m\libgcc.a(_arm_fixunsdfsi.o)
 .ARM.attributes
                0x00000bb3       0x2d c:/users/20131/appdata/local/arduino15/packages/arduino/tools/arm-none-eabi-gcc/4.8.3-2014q1/bin/../lib/gcc/arm-none-eabi/4.8.3/armv7-m\libgcc.a(_divdi3.o)
 .ARM.attributes
                0x00000be0       0x2d c:/users/20131/appdata/local/arduino15/packages/arduino/tools/arm-none-eabi-gcc/4.8.3-2014q1/bin/../lib/gcc/arm-none-eabi/4.8.3/armv7-m\libgcc.a(_udivdi3.o)
 .ARM.attributes
                0x00000c0d       0x2d c:/users/20131/appdata/local/arduino15/packages/arduino/tools/arm-none-eabi-gcc/4.8.3-2014q1/bin/../lib/gcc/arm-none-eabi/4.8.3/../../../../arm-none-eabi/lib/armv7-m\libc.a(lib_a-errno.o)
 .ARM.attributes
                0x00000c3a       0x2d c:/users/20131/appdata/local/arduino15/packages/arduino/tools/arm-none-eabi-gcc/4.8.3-2014q1/bin/../lib/gcc/arm-none-eabi/4.8.3/../../../../arm-none-eabi/lib/armv7-m\libc.a(lib_a-exit.o)
 .ARM.attributes
                0x00000c67       0x2d c:/users/20131/appdata/local/arduino15/packages/arduino/tools/arm-none-eabi-gcc/4.8.3-2014q1/bin/../lib/gcc/arm-none-eabi/4.8.3/../../../../arm-none-eabi/lib/armv7-m\libc.a(lib_a-impure.o)
 .ARM.attributes
                0x00000c94       0x2d c:/users/20131/appdata/local/arduino15/packages/arduino/tools/arm-none-eabi-gcc/4.8.3-2014q1/bin/../lib/gcc/arm-none-eabi/4.8.3/../../../../arm-none-eabi/lib/armv7-m\libc.a(lib_a-init.o)
 .ARM.attributes
                0x00000cc1       0x2d c:/users/20131/appdata/local/arduino15/packages/arduino/tools/arm-none-eabi-gcc/4.8.3-2014q1/bin/../lib/gcc/arm-none-eabi/4.8.3/../../../../arm-none-eabi/lib/armv7-m\libc.a(lib_a-memset.o)
 .ARM.attributes
                0x00000cee       0x2d c:/users/20131/appdata/local/arduino15/packages/arduino/tools/arm-none-eabi-gcc/4.8.3-2014q1/bin/../lib/gcc/arm-none-eabi/4.8.3/../../../../arm-none-eabi/lib/armv7-m\libc.a(lib_a-strlen.o)
 .ARM.attributes
                0x00000d1b       0x2d c:/users/20131/appdata/local/arduino15/packages/arduino/tools/arm-none-eabi-gcc/4.8.3-2014q1/bin/../lib/gcc/arm-none-eabi/4.8.3/../../../../arm-none-eabi/lib/armv7-m\libc.a(lib_a-__call_atexit.o)
 .ARM.attributes
                0x00000d48       0x2d c:/users/20131/appdata/local/arduino15/packages/arduino/tools/arm-none-eabi-gcc/4.8.3-2014q1/bin/../lib/gcc/arm-none-eabi/4.8.3/../../../../arm-none-eabi/lib/armv7-m\libc.a(lib_a-atexit.o)
 .ARM.attributes
                0x00000d75       0x2d c:/users/20131/appdata/local/arduino15/packages/arduino/tools/arm-none-eabi-gcc/4.8.3-2014q1/bin/../lib/gcc/arm-none-eabi/4.8.3/../../../../arm-none-eabi/lib/armv7-m\libc.a(lib_a-fini.o)
 .ARM.attributes
                0x00000da2       0x2d c:/users/20131/appdata/local/arduino15/packages/arduino/tools/arm-none-eabi-gcc/4.8.3-2014q1/bin/../lib/gcc/arm-none-eabi/4.8.3/../../../../arm-none-eabi/lib/armv7-m\libc.a(lib_a-__atexit.o)
 .ARM.attributes
                0x00000dcf       0x2d c:/users/20131/appdata/local/arduino15/packages/arduino/tools/arm-none-eabi-gcc/4.8.3-2014q1/bin/../lib/gcc/arm-none-eabi/4.8.3/armv7-m/crtend.o
 .ARM.attributes
                0x00000dfc       0x1d c:/users/20131/appdata/local/arduino15/packages/arduino/tools/arm-none-eabi-gcc/4.8.3-2014q1/bin/../lib/gcc/arm-none-eabi/4.8.3/armv7-m/crtn.o

/DISCARD/
 *(.note.GNU-stack)
OUTPUT(C:\Users\20131\AppData\Local\Temp\VMBuilds\new_LMDZ\STM32_genericSTM32F103C\Debug/new_LMDZ.ino.elf elf32-littlearm)

.debug_ranges   0x00000000     0x19e0
 .debug_ranges  0x00000000       0x38 new_LMDZ.cpp.o
 .debug_ranges  0x00000038       0x30 aveRage.cpp.o
 .debug_ranges  0x00000068       0x30 cmpValues.cpp.o
 .debug_ranges  0x00000098       0x30 draw.cpp.o
 .debug_ranges  0x000000c8       0x28 getValue.cpp.o
 .debug_ranges  0x000000f0       0x38 quartileDeviation.cpp.o
 .debug_ranges  0x00000128       0x30 rearrange.cpp.o
 .debug_ranges  0x00000158       0x58 valuesPrint.cpp.o
 .debug_ranges  0x000001b0       0x38 C:\Users\20131\AppData\Local\Temp\VMBCore\arduino16x\7c3dd42e408ebb1ce4dae06851a5a8aa\variant\board.cpp.o
 .debug_ranges  0x000001e8      0x160 C:\Users\20131\AppData\Local\Temp\VMBCore\arduino16x\7c3dd42e408ebb1ce4dae06851a5a8aa\variant\boards.cpp.o
 .debug_ranges  0x00000348       0x30 C:\Users\20131\AppData\Local\Temp\VMBCore\arduino16x\7c3dd42e408ebb1ce4dae06851a5a8aa\variant\boards_setup.cpp.o
 .debug_ranges  0x00000378       0x10 C:\Users\20131\AppData\Local\Temp\VMBCore\arduino16x\7c3dd42e408ebb1ce4dae06851a5a8aa\variant\start_c.c.o
 .debug_ranges  0x00000388       0x78 C:\Users\20131\AppData\Local\Temp\VMBCore\arduino16x\7c3dd42e408ebb1ce4dae06851a5a8aa\variant\syscalls.c.o
 .debug_ranges  0x00000400       0x28 C:\Users\20131\AppData\Local\Temp\VMBuilds\new_LMDZ\STM32_genericSTM32F103C\Debug\core.a(adc.c.o)
 .debug_ranges  0x00000428       0xb8 C:\Users\20131\AppData\Local\Temp\VMBuilds\new_LMDZ\STM32_genericSTM32F103C\Debug\core.a(adc_f1.c.o)
 .debug_ranges  0x000004e0      0x278 C:\Users\20131\AppData\Local\Temp\VMBuilds\new_LMDZ\STM32_genericSTM32F103C\Debug\core.a(dma_f1.c.o)
 .debug_ranges  0x00000758      0x150 C:\Users\20131\AppData\Local\Temp\VMBuilds\new_LMDZ\STM32_genericSTM32F103C\Debug\core.a(exti.c.o)
 .debug_ranges  0x000008a8       0x10 C:\Users\20131\AppData\Local\Temp\VMBuilds\new_LMDZ\STM32_genericSTM32F103C\Debug\core.a(exti_f1.c.o)
 .debug_ranges  0x000008b8       0x10 C:\Users\20131\AppData\Local\Temp\VMBuilds\new_LMDZ\STM32_genericSTM32F103C\Debug\core.a(flash.c.o)
 .debug_ranges  0x000008c8       0x30 C:\Users\20131\AppData\Local\Temp\VMBuilds\new_LMDZ\STM32_genericSTM32F103C\Debug\core.a(gpio_f1.c.o)
 .debug_ranges  0x000008f8       0x90 C:\Users\20131\AppData\Local\Temp\VMBuilds\new_LMDZ\STM32_genericSTM32F103C\Debug\core.a(i2c_f1.c.o)
 .debug_ranges  0x00000988       0x40 C:\Users\20131\AppData\Local\Temp\VMBuilds\new_LMDZ\STM32_genericSTM32F103C\Debug\core.a(nvic.c.o)
 .debug_ranges  0x000009c8       0x98 C:\Users\20131\AppData\Local\Temp\VMBuilds\new_LMDZ\STM32_genericSTM32F103C\Debug\core.a(rcc.c.o)
 .debug_ranges  0x00000a60       0xc8 C:\Users\20131\AppData\Local\Temp\VMBuilds\new_LMDZ\STM32_genericSTM32F103C\Debug\core.a(rcc_f1.c.o)
 .debug_ranges  0x00000b28       0x48 C:\Users\20131\AppData\Local\Temp\VMBuilds\new_LMDZ\STM32_genericSTM32F103C\Debug\core.a(systick.c.o)
 .debug_ranges  0x00000b70      0x110 C:\Users\20131\AppData\Local\Temp\VMBuilds\new_LMDZ\STM32_genericSTM32F103C\Debug\core.a(timer.c.o)
 .debug_ranges  0x00000c80       0x68 C:\Users\20131\AppData\Local\Temp\VMBuilds\new_LMDZ\STM32_genericSTM32F103C\Debug\core.a(usart_f1.c.o)
 .debug_ranges  0x00000ce8       0x10 C:\Users\20131\AppData\Local\Temp\VMBuilds\new_LMDZ\STM32_genericSTM32F103C\Debug\core.a(usart_private.c.o)
 .debug_ranges  0x00000cf8       0x58 C:\Users\20131\AppData\Local\Temp\VMBuilds\new_LMDZ\STM32_genericSTM32F103C\Debug\core.a(util.c.o)
 .debug_ranges  0x00000d50       0xa8 C:\Users\20131\AppData\Local\Temp\VMBuilds\new_LMDZ\STM32_genericSTM32F103C\Debug\core.a(usb.c.o)
 .debug_ranges  0x00000df8      0x238 C:\Users\20131\AppData\Local\Temp\VMBuilds\new_LMDZ\STM32_genericSTM32F103C\Debug\core.a(usb_cdcacm.c.o)
 .debug_ranges  0x00001030       0x60 C:\Users\20131\AppData\Local\Temp\VMBuilds\new_LMDZ\STM32_genericSTM32F103C\Debug\core.a(usb_reg_map.c.o)
 .debug_ranges  0x00001090       0xc0 C:\Users\20131\AppData\Local\Temp\VMBuilds\new_LMDZ\STM32_genericSTM32F103C\Debug\core.a(usb_core.c.o)
 .debug_ranges  0x00001150       0x10 C:\Users\20131\AppData\Local\Temp\VMBuilds\new_LMDZ\STM32_genericSTM32F103C\Debug\core.a(usb_init.c.o)
 .debug_ranges  0x00001160       0x18 C:\Users\20131\AppData\Local\Temp\VMBuilds\new_LMDZ\STM32_genericSTM32F103C\Debug\core.a(usb_mem.c.o)
 .debug_ranges  0x00001178      0x290 C:\Users\20131\AppData\Local\Temp\VMBuilds\new_LMDZ\STM32_genericSTM32F103C\Debug\core.a(usb_regs.c.o)
 .debug_ranges  0x00001408       0x90 C:\Users\20131\AppData\Local\Temp\VMBuilds\new_LMDZ\STM32_genericSTM32F103C\Debug\core.a(HardwareSerial.cpp.o)
 .debug_ranges  0x00001498       0x18 C:\Users\20131\AppData\Local\Temp\VMBuilds\new_LMDZ\STM32_genericSTM32F103C\Debug\core.a(main.cpp.o)
 .debug_ranges  0x000014b0      0x230 C:\Users\20131\AppData\Local\Temp\VMBuilds\new_LMDZ\STM32_genericSTM32F103C\Debug\core.a(Print.cpp.o)
 .debug_ranges  0x000016e0       0x10 C:\Users\20131\AppData\Local\Temp\VMBuilds\new_LMDZ\STM32_genericSTM32F103C\Debug\core.a(wirish_analog.cpp.o)
 .debug_ranges  0x000016f0       0x20 C:\Users\20131\AppData\Local\Temp\VMBuilds\new_LMDZ\STM32_genericSTM32F103C\Debug\core.a(wirish_time.cpp.o)
 .debug_ranges  0x00001710       0x30 C:\Users\20131\AppData\Local\Temp\VMBuilds\new_LMDZ\STM32_genericSTM32F103C\Debug\core.a(wirish_digital_f1.cpp.o)
 .debug_ranges  0x00001740       0x10 C:\Users\20131\AppData\Local\Temp\VMBuilds\new_LMDZ\STM32_genericSTM32F103C\Debug\core.a(hooks.c.o)
 .debug_ranges  0x00001750       0x18 C:\Users\20131\AppData\Local\Temp\VMBuilds\new_LMDZ\STM32_genericSTM32F103C\Debug\core.a(dma.c.o)
 .debug_ranges  0x00001768       0x10 C:\Users\20131\AppData\Local\Temp\VMBuilds\new_LMDZ\STM32_genericSTM32F103C\Debug\core.a(gpio.c.o)
 .debug_ranges  0x00001778      0x188 C:\Users\20131\AppData\Local\Temp\VMBuilds\new_LMDZ\STM32_genericSTM32F103C\Debug\core.a(i2c.c.o)
 .debug_ranges  0x00001900       0xd0 C:\Users\20131\AppData\Local\Temp\VMBuilds\new_LMDZ\STM32_genericSTM32F103C\Debug\core.a(usart.c.o)
 .debug_ranges  0x000019d0       0x10 C:\Users\20131\AppData\Local\Temp\VMBuilds\new_LMDZ\STM32_genericSTM32F103C\Debug\core.a(cxxabi-compat.cpp.o)

.comment        0x00000000       0x70
 .comment       0x00000000       0x70 new_LMDZ.cpp.o
                                 0x71 (size before relaxing)
 .comment       0x00000000       0x71 aveRage.cpp.o
 .comment       0x00000000       0x71 cmpValues.cpp.o
 .comment       0x00000000       0x71 draw.cpp.o
 .comment       0x00000000       0x71 getValue.cpp.o
 .comment       0x00000000       0x71 quartileDeviation.cpp.o
 .comment       0x00000000       0x71 rearrange.cpp.o
 .comment       0x00000000       0x71 valuesPrint.cpp.o
 .comment       0x00000000       0x71 C:\Users\20131\AppData\Local\Temp\VMBCore\arduino16x\7c3dd42e408ebb1ce4dae06851a5a8aa\variant\board.cpp.o
 .comment       0x00000000       0x71 C:\Users\20131\AppData\Local\Temp\VMBCore\arduino16x\7c3dd42e408ebb1ce4dae06851a5a8aa\variant\boards.cpp.o
 .comment       0x00000000       0x71 C:\Users\20131\AppData\Local\Temp\VMBCore\arduino16x\7c3dd42e408ebb1ce4dae06851a5a8aa\variant\boards_setup.cpp.o
 .comment       0x00000000       0x71 C:\Users\20131\AppData\Local\Temp\VMBCore\arduino16x\7c3dd42e408ebb1ce4dae06851a5a8aa\variant\start_c.c.o
 .comment       0x00000000       0x71 C:\Users\20131\AppData\Local\Temp\VMBCore\arduino16x\7c3dd42e408ebb1ce4dae06851a5a8aa\variant\syscalls.c.o
 .comment       0x00000000       0x71 C:\Users\20131\AppData\Local\Temp\VMBuilds\new_LMDZ\STM32_genericSTM32F103C\Debug\core.a(adc.c.o)
 .comment       0x00000000       0x71 C:\Users\20131\AppData\Local\Temp\VMBuilds\new_LMDZ\STM32_genericSTM32F103C\Debug\core.a(adc_f1.c.o)
 .comment       0x00000000       0x71 C:\Users\20131\AppData\Local\Temp\VMBuilds\new_LMDZ\STM32_genericSTM32F103C\Debug\core.a(dma_f1.c.o)
 .comment       0x00000000       0x71 C:\Users\20131\AppData\Local\Temp\VMBuilds\new_LMDZ\STM32_genericSTM32F103C\Debug\core.a(exti.c.o)
 .comment       0x00000000       0x71 C:\Users\20131\AppData\Local\Temp\VMBuilds\new_LMDZ\STM32_genericSTM32F103C\Debug\core.a(exti_f1.c.o)
 .comment       0x00000000       0x71 C:\Users\20131\AppData\Local\Temp\VMBuilds\new_LMDZ\STM32_genericSTM32F103C\Debug\core.a(flash.c.o)
 .comment       0x00000000       0x71 C:\Users\20131\AppData\Local\Temp\VMBuilds\new_LMDZ\STM32_genericSTM32F103C\Debug\core.a(gpio_f1.c.o)
 .comment       0x00000000       0x71 C:\Users\20131\AppData\Local\Temp\VMBuilds\new_LMDZ\STM32_genericSTM32F103C\Debug\core.a(i2c_f1.c.o)
 .comment       0x00000000       0x71 C:\Users\20131\AppData\Local\Temp\VMBuilds\new_LMDZ\STM32_genericSTM32F103C\Debug\core.a(nvic.c.o)
 .comment       0x00000000       0x71 C:\Users\20131\AppData\Local\Temp\VMBuilds\new_LMDZ\STM32_genericSTM32F103C\Debug\core.a(rcc.c.o)
 .comment       0x00000000       0x71 C:\Users\20131\AppData\Local\Temp\VMBuilds\new_LMDZ\STM32_genericSTM32F103C\Debug\core.a(rcc_f1.c.o)
 .comment       0x00000000       0x71 C:\Users\20131\AppData\Local\Temp\VMBuilds\new_LMDZ\STM32_genericSTM32F103C\Debug\core.a(systick.c.o)
 .comment       0x00000000       0x71 C:\Users\20131\AppData\Local\Temp\VMBuilds\new_LMDZ\STM32_genericSTM32F103C\Debug\core.a(timer.c.o)
 .comment       0x00000000       0x71 C:\Users\20131\AppData\Local\Temp\VMBuilds\new_LMDZ\STM32_genericSTM32F103C\Debug\core.a(usart_f1.c.o)
 .comment       0x00000000       0x71 C:\Users\20131\AppData\Local\Temp\VMBuilds\new_LMDZ\STM32_genericSTM32F103C\Debug\core.a(usart_private.c.o)
 .comment       0x00000000       0x71 C:\Users\20131\AppData\Local\Temp\VMBuilds\new_LMDZ\STM32_genericSTM32F103C\Debug\core.a(util.c.o)
 .comment       0x00000000       0x71 C:\Users\20131\AppData\Local\Temp\VMBuilds\new_LMDZ\STM32_genericSTM32F103C\Debug\core.a(usb.c.o)
 .comment       0x00000000       0x71 C:\Users\20131\AppData\Local\Temp\VMBuilds\new_LMDZ\STM32_genericSTM32F103C\Debug\core.a(usb_cdcacm.c.o)
 .comment       0x00000000       0x71 C:\Users\20131\AppData\Local\Temp\VMBuilds\new_LMDZ\STM32_genericSTM32F103C\Debug\core.a(usb_reg_map.c.o)
 .comment       0x00000000       0x71 C:\Users\20131\AppData\Local\Temp\VMBuilds\new_LMDZ\STM32_genericSTM32F103C\Debug\core.a(usb_core.c.o)
 .comment       0x00000000       0x71 C:\Users\20131\AppData\Local\Temp\VMBuilds\new_LMDZ\STM32_genericSTM32F103C\Debug\core.a(usb_init.c.o)
 .comment       0x00000000       0x71 C:\Users\20131\AppData\Local\Temp\VMBuilds\new_LMDZ\STM32_genericSTM32F103C\Debug\core.a(usb_mem.c.o)
 .comment       0x00000000       0x71 C:\Users\20131\AppData\Local\Temp\VMBuilds\new_LMDZ\STM32_genericSTM32F103C\Debug\core.a(usb_regs.c.o)
 .comment       0x00000000       0x71 C:\Users\20131\AppData\Local\Temp\VMBuilds\new_LMDZ\STM32_genericSTM32F103C\Debug\core.a(HardwareSerial.cpp.o)
 .comment       0x00000000       0x71 C:\Users\20131\AppData\Local\Temp\VMBuilds\new_LMDZ\STM32_genericSTM32F103C\Debug\core.a(main.cpp.o)
 .comment       0x00000000       0x71 C:\Users\20131\AppData\Local\Temp\VMBuilds\new_LMDZ\STM32_genericSTM32F103C\Debug\core.a(Print.cpp.o)
 .comment       0x00000000       0x71 C:\Users\20131\AppData\Local\Temp\VMBuilds\new_LMDZ\STM32_genericSTM32F103C\Debug\core.a(wirish_analog.cpp.o)
 .comment       0x00000000       0x71 C:\Users\20131\AppData\Local\Temp\VMBuilds\new_LMDZ\STM32_genericSTM32F103C\Debug\core.a(wirish_time.cpp.o)
 .comment       0x00000000       0x71 C:\Users\20131\AppData\Local\Temp\VMBuilds\new_LMDZ\STM32_genericSTM32F103C\Debug\core.a(wirish_digital_f1.cpp.o)
 .comment       0x00000000       0x71 C:\Users\20131\AppData\Local\Temp\VMBuilds\new_LMDZ\STM32_genericSTM32F103C\Debug\core.a(hooks.c.o)
 .comment       0x00000000       0x71 C:\Users\20131\AppData\Local\Temp\VMBuilds\new_LMDZ\STM32_genericSTM32F103C\Debug\core.a(dma.c.o)
 .comment       0x00000000       0x71 C:\Users\20131\AppData\Local\Temp\VMBuilds\new_LMDZ\STM32_genericSTM32F103C\Debug\core.a(gpio.c.o)
 .comment       0x00000000       0x71 C:\Users\20131\AppData\Local\Temp\VMBuilds\new_LMDZ\STM32_genericSTM32F103C\Debug\core.a(i2c.c.o)
 .comment       0x00000000       0x71 C:\Users\20131\AppData\Local\Temp\VMBuilds\new_LMDZ\STM32_genericSTM32F103C\Debug\core.a(usart.c.o)
 .comment       0x00000000       0x71 C:\Users\20131\AppData\Local\Temp\VMBuilds\new_LMDZ\STM32_genericSTM32F103C\Debug\core.a(cxxabi-compat.cpp.o)

Cross Reference Table

Symbol                                            File
A                                                 new_LMDZ.cpp.o
ADC1                                              C:\Users\20131\AppData\Local\Temp\VMBuilds\new_LMDZ\STM32_genericSTM32F103C\Debug\core.a(adc_f1.c.o)
ADC2                                              C:\Users\20131\AppData\Local\Temp\VMBuilds\new_LMDZ\STM32_genericSTM32F103C\Debug\core.a(adc_f1.c.o)
ByteSwap                                          C:\Users\20131\AppData\Local\Temp\VMBuilds\new_LMDZ\STM32_genericSTM32F103C\Debug\core.a(usb_regs.c.o)
ClearDTOG_RX                                      C:\Users\20131\AppData\Local\Temp\VMBuilds\new_LMDZ\STM32_genericSTM32F103C\Debug\core.a(usb_regs.c.o)
                                                  C:\Users\20131\AppData\Local\Temp\VMBuilds\new_LMDZ\STM32_genericSTM32F103C\Debug\core.a(usb_core.c.o)
ClearDTOG_TX                                      C:\Users\20131\AppData\Local\Temp\VMBuilds\new_LMDZ\STM32_genericSTM32F103C\Debug\core.a(usb_regs.c.o)
                                                  C:\Users\20131\AppData\Local\Temp\VMBuilds\new_LMDZ\STM32_genericSTM32F103C\Debug\core.a(usb_core.c.o)
ClearEPDoubleBuff                                 C:\Users\20131\AppData\Local\Temp\VMBuilds\new_LMDZ\STM32_genericSTM32F103C\Debug\core.a(usb_regs.c.o)
ClearEP_CTR_RX                                    C:\Users\20131\AppData\Local\Temp\VMBuilds\new_LMDZ\STM32_genericSTM32F103C\Debug\core.a(usb_regs.c.o)
ClearEP_CTR_TX                                    C:\Users\20131\AppData\Local\Temp\VMBuilds\new_LMDZ\STM32_genericSTM32F103C\Debug\core.a(usb_regs.c.o)
ClearEP_KIND                                      C:\Users\20131\AppData\Local\Temp\VMBuilds\new_LMDZ\STM32_genericSTM32F103C\Debug\core.a(usb_regs.c.o)
Clear_Status_Out                                  C:\Users\20131\AppData\Local\Temp\VMBuilds\new_LMDZ\STM32_genericSTM32F103C\Debug\core.a(usb_regs.c.o)
DMA1                                              C:\Users\20131\AppData\Local\Temp\VMBuilds\new_LMDZ\STM32_genericSTM32F103C\Debug\core.a(dma_f1.c.o)
Data_Mul_MaxPacketSize                            C:\Users\20131\AppData\Local\Temp\VMBuilds\new_LMDZ\STM32_genericSTM32F103C\Debug\core.a(usb_core.c.o)
Delay                                             new_LMDZ.cpp.o
                                                  getValue.cpp.o
Device_Info                                       C:\Users\20131\AppData\Local\Temp\VMBuilds\new_LMDZ\STM32_genericSTM32F103C\Debug\core.a(usb_init.c.o)
                                                  C:\Users\20131\AppData\Local\Temp\VMBuilds\new_LMDZ\STM32_genericSTM32F103C\Debug\core.a(usb.c.o)
Device_Property                                   C:\Users\20131\AppData\Local\Temp\VMBuilds\new_LMDZ\STM32_genericSTM32F103C\Debug\core.a(usb_cdcacm.c.o)
                                                  C:\Users\20131\AppData\Local\Temp\VMBuilds\new_LMDZ\STM32_genericSTM32F103C\Debug\core.a(usb_init.c.o)
                                                  C:\Users\20131\AppData\Local\Temp\VMBuilds\new_LMDZ\STM32_genericSTM32F103C\Debug\core.a(usb_core.c.o)
                                                  C:\Users\20131\AppData\Local\Temp\VMBuilds\new_LMDZ\STM32_genericSTM32F103C\Debug\core.a(usb.c.o)
Device_Table                                      C:\Users\20131\AppData\Local\Temp\VMBuilds\new_LMDZ\STM32_genericSTM32F103C\Debug\core.a(usb_cdcacm.c.o)
                                                  C:\Users\20131\AppData\Local\Temp\VMBuilds\new_LMDZ\STM32_genericSTM32F103C\Debug\core.a(usb_core.c.o)
EPindex                                           C:\Users\20131\AppData\Local\Temp\VMBuilds\new_LMDZ\STM32_genericSTM32F103C\Debug\core.a(usb_init.c.o)
FreeUserBuffer                                    C:\Users\20131\AppData\Local\Temp\VMBuilds\new_LMDZ\STM32_genericSTM32F103C\Debug\core.a(usb_regs.c.o)
GPIOA                                             C:\Users\20131\AppData\Local\Temp\VMBuilds\new_LMDZ\STM32_genericSTM32F103C\Debug\core.a(gpio_f1.c.o)
GPIOB                                             C:\Users\20131\AppData\Local\Temp\VMBuilds\new_LMDZ\STM32_genericSTM32F103C\Debug\core.a(gpio_f1.c.o)
GPIOC                                             C:\Users\20131\AppData\Local\Temp\VMBuilds\new_LMDZ\STM32_genericSTM32F103C\Debug\core.a(gpio_f1.c.o)
                                                  C:\Users\20131\AppData\Local\Temp\VMBuilds\new_LMDZ\STM32_genericSTM32F103C\Debug\core.a(util.c.o)
GPIOD                                             C:\Users\20131\AppData\Local\Temp\VMBuilds\new_LMDZ\STM32_genericSTM32F103C\Debug\core.a(gpio_f1.c.o)
GetBTABLE                                         C:\Users\20131\AppData\Local\Temp\VMBuilds\new_LMDZ\STM32_genericSTM32F103C\Debug\core.a(usb_regs.c.o)
GetCNTR                                           C:\Users\20131\AppData\Local\Temp\VMBuilds\new_LMDZ\STM32_genericSTM32F103C\Debug\core.a(usb_regs.c.o)
GetDADDR                                          C:\Users\20131\AppData\Local\Temp\VMBuilds\new_LMDZ\STM32_genericSTM32F103C\Debug\core.a(usb_regs.c.o)
GetENDPOINT                                       C:\Users\20131\AppData\Local\Temp\VMBuilds\new_LMDZ\STM32_genericSTM32F103C\Debug\core.a(usb_regs.c.o)
GetEPAddress                                      C:\Users\20131\AppData\Local\Temp\VMBuilds\new_LMDZ\STM32_genericSTM32F103C\Debug\core.a(usb_regs.c.o)
GetEPDblBuf0Addr                                  C:\Users\20131\AppData\Local\Temp\VMBuilds\new_LMDZ\STM32_genericSTM32F103C\Debug\core.a(usb_regs.c.o)
GetEPDblBuf0Count                                 C:\Users\20131\AppData\Local\Temp\VMBuilds\new_LMDZ\STM32_genericSTM32F103C\Debug\core.a(usb_regs.c.o)
GetEPDblBuf1Addr                                  C:\Users\20131\AppData\Local\Temp\VMBuilds\new_LMDZ\STM32_genericSTM32F103C\Debug\core.a(usb_regs.c.o)
GetEPDblBuf1Count                                 C:\Users\20131\AppData\Local\Temp\VMBuilds\new_LMDZ\STM32_genericSTM32F103C\Debug\core.a(usb_regs.c.o)
GetEPDblBufDir                                    C:\Users\20131\AppData\Local\Temp\VMBuilds\new_LMDZ\STM32_genericSTM32F103C\Debug\core.a(usb_regs.c.o)
GetEPRxAddr                                       C:\Users\20131\AppData\Local\Temp\VMBuilds\new_LMDZ\STM32_genericSTM32F103C\Debug\core.a(usb_regs.c.o)
                                                  C:\Users\20131\AppData\Local\Temp\VMBuilds\new_LMDZ\STM32_genericSTM32F103C\Debug\core.a(usb_core.c.o)
GetEPRxCount                                      C:\Users\20131\AppData\Local\Temp\VMBuilds\new_LMDZ\STM32_genericSTM32F103C\Debug\core.a(usb_regs.c.o)
GetEPRxStatus                                     C:\Users\20131\AppData\Local\Temp\VMBuilds\new_LMDZ\STM32_genericSTM32F103C\Debug\core.a(usb_regs.c.o)
GetEPTxAddr                                       C:\Users\20131\AppData\Local\Temp\VMBuilds\new_LMDZ\STM32_genericSTM32F103C\Debug\core.a(usb_regs.c.o)
                                                  C:\Users\20131\AppData\Local\Temp\VMBuilds\new_LMDZ\STM32_genericSTM32F103C\Debug\core.a(usb_core.c.o)
GetEPTxCount                                      C:\Users\20131\AppData\Local\Temp\VMBuilds\new_LMDZ\STM32_genericSTM32F103C\Debug\core.a(usb_regs.c.o)
GetEPTxStatus                                     C:\Users\20131\AppData\Local\Temp\VMBuilds\new_LMDZ\STM32_genericSTM32F103C\Debug\core.a(usb_regs.c.o)
GetEPType                                         C:\Users\20131\AppData\Local\Temp\VMBuilds\new_LMDZ\STM32_genericSTM32F103C\Debug\core.a(usb_regs.c.o)
GetFNR                                            C:\Users\20131\AppData\Local\Temp\VMBuilds\new_LMDZ\STM32_genericSTM32F103C\Debug\core.a(usb_regs.c.o)
GetISTR                                           C:\Users\20131\AppData\Local\Temp\VMBuilds\new_LMDZ\STM32_genericSTM32F103C\Debug\core.a(usb_regs.c.o)
GetRxStallStatus                                  C:\Users\20131\AppData\Local\Temp\VMBuilds\new_LMDZ\STM32_genericSTM32F103C\Debug\core.a(usb_regs.c.o)
GetTxStallStatus                                  C:\Users\20131\AppData\Local\Temp\VMBuilds\new_LMDZ\STM32_genericSTM32F103C\Debug\core.a(usb_regs.c.o)
HardwareSerial::HardwareSerial(usart_dev*, unsigned char, unsigned char) C:\Users\20131\AppData\Local\Temp\VMBuilds\new_LMDZ\STM32_genericSTM32F103C\Debug\core.a(HardwareSerial.cpp.o)
HardwareSerial::HardwareSerial(usart_dev*, unsigned char, unsigned char) C:\Users\20131\AppData\Local\Temp\VMBuilds\new_LMDZ\STM32_genericSTM32F103C\Debug\core.a(HardwareSerial.cpp.o)
                                                  C:\Users\20131\AppData\Local\Temp\VMBCore\arduino16x\7c3dd42e408ebb1ce4dae06851a5a8aa\variant\board.cpp.o
HardwareSerial::available()                       C:\Users\20131\AppData\Local\Temp\VMBuilds\new_LMDZ\STM32_genericSTM32F103C\Debug\core.a(HardwareSerial.cpp.o)
HardwareSerial::availableForWrite()               C:\Users\20131\AppData\Local\Temp\VMBuilds\new_LMDZ\STM32_genericSTM32F103C\Debug\core.a(HardwareSerial.cpp.o)
HardwareSerial::begin(unsigned long)              C:\Users\20131\AppData\Local\Temp\VMBuilds\new_LMDZ\STM32_genericSTM32F103C\Debug\core.a(HardwareSerial.cpp.o)
                                                  new_LMDZ.cpp.o
HardwareSerial::begin(unsigned long, unsigned char) C:\Users\20131\AppData\Local\Temp\VMBuilds\new_LMDZ\STM32_genericSTM32F103C\Debug\core.a(HardwareSerial.cpp.o)
HardwareSerial::end()                             C:\Users\20131\AppData\Local\Temp\VMBuilds\new_LMDZ\STM32_genericSTM32F103C\Debug\core.a(HardwareSerial.cpp.o)
HardwareSerial::flush()                           C:\Users\20131\AppData\Local\Temp\VMBuilds\new_LMDZ\STM32_genericSTM32F103C\Debug\core.a(HardwareSerial.cpp.o)
HardwareSerial::peek()                            C:\Users\20131\AppData\Local\Temp\VMBuilds\new_LMDZ\STM32_genericSTM32F103C\Debug\core.a(HardwareSerial.cpp.o)
HardwareSerial::read()                            C:\Users\20131\AppData\Local\Temp\VMBuilds\new_LMDZ\STM32_genericSTM32F103C\Debug\core.a(HardwareSerial.cpp.o)
HardwareSerial::write(unsigned char)              C:\Users\20131\AppData\Local\Temp\VMBuilds\new_LMDZ\STM32_genericSTM32F103C\Debug\core.a(HardwareSerial.cpp.o)
I2C1                                              C:\Users\20131\AppData\Local\Temp\VMBuilds\new_LMDZ\STM32_genericSTM32F103C\Debug\core.a(i2c_f1.c.o)
                                                  C:\Users\20131\AppData\Local\Temp\VMBuilds\new_LMDZ\STM32_genericSTM32F103C\Debug\core.a(i2c.c.o)
I2C2                                              C:\Users\20131\AppData\Local\Temp\VMBuilds\new_LMDZ\STM32_genericSTM32F103C\Debug\core.a(i2c_f1.c.o)
In0_Process                                       C:\Users\20131\AppData\Local\Temp\VMBuilds\new_LMDZ\STM32_genericSTM32F103C\Debug\core.a(usb_core.c.o)
                                                  C:\Users\20131\AppData\Local\Temp\VMBuilds\new_LMDZ\STM32_genericSTM32F103C\Debug\core.a(usb.c.o)
NOP_Process                                       C:\Users\20131\AppData\Local\Temp\VMBuilds\new_LMDZ\STM32_genericSTM32F103C\Debug\core.a(usb_core.c.o)
                                                  C:\Users\20131\AppData\Local\Temp\VMBuilds\new_LMDZ\STM32_genericSTM32F103C\Debug\core.a(usb_cdcacm.c.o)
Out0_Process                                      C:\Users\20131\AppData\Local\Temp\VMBuilds\new_LMDZ\STM32_genericSTM32F103C\Debug\core.a(usb_core.c.o)
                                                  C:\Users\20131\AppData\Local\Temp\VMBuilds\new_LMDZ\STM32_genericSTM32F103C\Debug\core.a(usb.c.o)
PIN_MAP                                           C:\Users\20131\AppData\Local\Temp\VMBCore\arduino16x\7c3dd42e408ebb1ce4dae06851a5a8aa\variant\board.cpp.o
                                                  C:\Users\20131\AppData\Local\Temp\VMBuilds\new_LMDZ\STM32_genericSTM32F103C\Debug\core.a(wirish_digital_f1.cpp.o)
                                                  C:\Users\20131\AppData\Local\Temp\VMBuilds\new_LMDZ\STM32_genericSTM32F103C\Debug\core.a(wirish_analog.cpp.o)
                                                  C:\Users\20131\AppData\Local\Temp\VMBuilds\new_LMDZ\STM32_genericSTM32F103C\Debug\core.a(HardwareSerial.cpp.o)
PMAToUserBufferCopy                               C:\Users\20131\AppData\Local\Temp\VMBuilds\new_LMDZ\STM32_genericSTM32F103C\Debug\core.a(usb_mem.c.o)
                                                  C:\Users\20131\AppData\Local\Temp\VMBuilds\new_LMDZ\STM32_genericSTM32F103C\Debug\core.a(usb_core.c.o)
Post0_Process                                     C:\Users\20131\AppData\Local\Temp\VMBuilds\new_LMDZ\STM32_genericSTM32F103C\Debug\core.a(usb_core.c.o)
Print::print(Printable const&)                    C:\Users\20131\AppData\Local\Temp\VMBuilds\new_LMDZ\STM32_genericSTM32F103C\Debug\core.a(Print.cpp.o)
Print::print(String const&)                       C:\Users\20131\AppData\Local\Temp\VMBuilds\new_LMDZ\STM32_genericSTM32F103C\Debug\core.a(Print.cpp.o)
Print::print(__FlashStringHelper const*)          C:\Users\20131\AppData\Local\Temp\VMBuilds\new_LMDZ\STM32_genericSTM32F103C\Debug\core.a(Print.cpp.o)
Print::print(char const*)                         C:\Users\20131\AppData\Local\Temp\VMBuilds\new_LMDZ\STM32_genericSTM32F103C\Debug\core.a(Print.cpp.o)
                                                  valuesPrint.cpp.o
                                                  draw.cpp.o
Print::print(char)                                C:\Users\20131\AppData\Local\Temp\VMBuilds\new_LMDZ\STM32_genericSTM32F103C\Debug\core.a(Print.cpp.o)
Print::print(double, int)                         C:\Users\20131\AppData\Local\Temp\VMBuilds\new_LMDZ\STM32_genericSTM32F103C\Debug\core.a(Print.cpp.o)
Print::print(int, int)                            C:\Users\20131\AppData\Local\Temp\VMBuilds\new_LMDZ\STM32_genericSTM32F103C\Debug\core.a(Print.cpp.o)
                                                  valuesPrint.cpp.o
Print::print(long long, int)                      C:\Users\20131\AppData\Local\Temp\VMBuilds\new_LMDZ\STM32_genericSTM32F103C\Debug\core.a(Print.cpp.o)
Print::print(long, int)                           C:\Users\20131\AppData\Local\Temp\VMBuilds\new_LMDZ\STM32_genericSTM32F103C\Debug\core.a(Print.cpp.o)
Print::print(unsigned char, int)                  C:\Users\20131\AppData\Local\Temp\VMBuilds\new_LMDZ\STM32_genericSTM32F103C\Debug\core.a(Print.cpp.o)
Print::print(unsigned int, int)                   C:\Users\20131\AppData\Local\Temp\VMBuilds\new_LMDZ\STM32_genericSTM32F103C\Debug\core.a(Print.cpp.o)
Print::print(unsigned long long, int)             C:\Users\20131\AppData\Local\Temp\VMBuilds\new_LMDZ\STM32_genericSTM32F103C\Debug\core.a(Print.cpp.o)
Print::print(unsigned long, int)                  C:\Users\20131\AppData\Local\Temp\VMBuilds\new_LMDZ\STM32_genericSTM32F103C\Debug\core.a(Print.cpp.o)
Print::printFloat(double, unsigned char)          C:\Users\20131\AppData\Local\Temp\VMBuilds\new_LMDZ\STM32_genericSTM32F103C\Debug\core.a(Print.cpp.o)
Print::printNumber(unsigned long long, unsigned char) C:\Users\20131\AppData\Local\Temp\VMBuilds\new_LMDZ\STM32_genericSTM32F103C\Debug\core.a(Print.cpp.o)
Print::println()                                  C:\Users\20131\AppData\Local\Temp\VMBuilds\new_LMDZ\STM32_genericSTM32F103C\Debug\core.a(Print.cpp.o)
                                                  valuesPrint.cpp.o
                                                  draw.cpp.o
Print::println(Printable const&)                  C:\Users\20131\AppData\Local\Temp\VMBuilds\new_LMDZ\STM32_genericSTM32F103C\Debug\core.a(Print.cpp.o)
Print::println(String const&)                     C:\Users\20131\AppData\Local\Temp\VMBuilds\new_LMDZ\STM32_genericSTM32F103C\Debug\core.a(Print.cpp.o)
Print::println(__FlashStringHelper const*)        C:\Users\20131\AppData\Local\Temp\VMBuilds\new_LMDZ\STM32_genericSTM32F103C\Debug\core.a(Print.cpp.o)
Print::println(char const*)                       C:\Users\20131\AppData\Local\Temp\VMBuilds\new_LMDZ\STM32_genericSTM32F103C\Debug\core.a(Print.cpp.o)
                                                  valuesPrint.cpp.o
Print::println(char)                              C:\Users\20131\AppData\Local\Temp\VMBuilds\new_LMDZ\STM32_genericSTM32F103C\Debug\core.a(Print.cpp.o)
Print::println(double, int)                       C:\Users\20131\AppData\Local\Temp\VMBuilds\new_LMDZ\STM32_genericSTM32F103C\Debug\core.a(Print.cpp.o)
Print::println(int, int)                          C:\Users\20131\AppData\Local\Temp\VMBuilds\new_LMDZ\STM32_genericSTM32F103C\Debug\core.a(Print.cpp.o)
Print::println(long long, int)                    C:\Users\20131\AppData\Local\Temp\VMBuilds\new_LMDZ\STM32_genericSTM32F103C\Debug\core.a(Print.cpp.o)
Print::println(long, int)                         C:\Users\20131\AppData\Local\Temp\VMBuilds\new_LMDZ\STM32_genericSTM32F103C\Debug\core.a(Print.cpp.o)
Print::println(unsigned char, int)                C:\Users\20131\AppData\Local\Temp\VMBuilds\new_LMDZ\STM32_genericSTM32F103C\Debug\core.a(Print.cpp.o)
Print::println(unsigned int, int)                 C:\Users\20131\AppData\Local\Temp\VMBuilds\new_LMDZ\STM32_genericSTM32F103C\Debug\core.a(Print.cpp.o)
Print::println(unsigned long long, int)           C:\Users\20131\AppData\Local\Temp\VMBuilds\new_LMDZ\STM32_genericSTM32F103C\Debug\core.a(Print.cpp.o)
Print::println(unsigned long, int)                C:\Users\20131\AppData\Local\Temp\VMBuilds\new_LMDZ\STM32_genericSTM32F103C\Debug\core.a(Print.cpp.o)
Print::write(char const*)                         C:\Users\20131\AppData\Local\Temp\VMBuilds\new_LMDZ\STM32_genericSTM32F103C\Debug\core.a(Print.cpp.o)
                                                  C:\Users\20131\AppData\Local\Temp\VMBuilds\new_LMDZ\STM32_genericSTM32F103C\Debug\core.a(HardwareSerial.cpp.o)
Print::write(void const*, unsigned long)          C:\Users\20131\AppData\Local\Temp\VMBuilds\new_LMDZ\STM32_genericSTM32F103C\Debug\core.a(Print.cpp.o)
                                                  C:\Users\20131\AppData\Local\Temp\VMBuilds\new_LMDZ\STM32_genericSTM32F103C\Debug\core.a(HardwareSerial.cpp.o)
ResumeS                                           C:\Users\20131\AppData\Local\Temp\VMBuilds\new_LMDZ\STM32_genericSTM32F103C\Debug\core.a(usb.c.o)
SaveRState                                        C:\Users\20131\AppData\Local\Temp\VMBuilds\new_LMDZ\STM32_genericSTM32F103C\Debug\core.a(usb_core.c.o)
                                                  C:\Users\20131\AppData\Local\Temp\VMBuilds\new_LMDZ\STM32_genericSTM32F103C\Debug\core.a(usb.c.o)
SaveState                                         C:\Users\20131\AppData\Local\Temp\VMBuilds\new_LMDZ\STM32_genericSTM32F103C\Debug\core.a(usb_init.c.o)
SaveTState                                        C:\Users\20131\AppData\Local\Temp\VMBuilds\new_LMDZ\STM32_genericSTM32F103C\Debug\core.a(usb_core.c.o)
                                                  C:\Users\20131\AppData\Local\Temp\VMBuilds\new_LMDZ\STM32_genericSTM32F103C\Debug\core.a(usb.c.o)
Serial                                            C:\Users\20131\AppData\Local\Temp\VMBCore\arduino16x\7c3dd42e408ebb1ce4dae06851a5a8aa\variant\board.cpp.o
                                                  valuesPrint.cpp.o
                                                  draw.cpp.o
                                                  new_LMDZ.cpp.o
Serial1                                           C:\Users\20131\AppData\Local\Temp\VMBCore\arduino16x\7c3dd42e408ebb1ce4dae06851a5a8aa\variant\board.cpp.o
Serial2                                           C:\Users\20131\AppData\Local\Temp\VMBCore\arduino16x\7c3dd42e408ebb1ce4dae06851a5a8aa\variant\board.cpp.o
SetBTABLE                                         C:\Users\20131\AppData\Local\Temp\VMBuilds\new_LMDZ\STM32_genericSTM32F103C\Debug\core.a(usb_regs.c.o)
SetCNTR                                           C:\Users\20131\AppData\Local\Temp\VMBuilds\new_LMDZ\STM32_genericSTM32F103C\Debug\core.a(usb_regs.c.o)
SetDADDR                                          C:\Users\20131\AppData\Local\Temp\VMBuilds\new_LMDZ\STM32_genericSTM32F103C\Debug\core.a(usb_regs.c.o)
SetDeviceAddress                                  C:\Users\20131\AppData\Local\Temp\VMBuilds\new_LMDZ\STM32_genericSTM32F103C\Debug\core.a(usb_core.c.o)
                                                  C:\Users\20131\AppData\Local\Temp\VMBuilds\new_LMDZ\STM32_genericSTM32F103C\Debug\core.a(usb_cdcacm.c.o)
SetDouBleBuffEPStall                              C:\Users\20131\AppData\Local\Temp\VMBuilds\new_LMDZ\STM32_genericSTM32F103C\Debug\core.a(usb_regs.c.o)
SetENDPOINT                                       C:\Users\20131\AppData\Local\Temp\VMBuilds\new_LMDZ\STM32_genericSTM32F103C\Debug\core.a(usb_regs.c.o)
SetEPAddress                                      C:\Users\20131\AppData\Local\Temp\VMBuilds\new_LMDZ\STM32_genericSTM32F103C\Debug\core.a(usb_regs.c.o)
SetEPCountRxReg                                   C:\Users\20131\AppData\Local\Temp\VMBuilds\new_LMDZ\STM32_genericSTM32F103C\Debug\core.a(usb_regs.c.o)
SetEPDblBuf0Addr                                  C:\Users\20131\AppData\Local\Temp\VMBuilds\new_LMDZ\STM32_genericSTM32F103C\Debug\core.a(usb_regs.c.o)
SetEPDblBuf0Count                                 C:\Users\20131\AppData\Local\Temp\VMBuilds\new_LMDZ\STM32_genericSTM32F103C\Debug\core.a(usb_regs.c.o)
SetEPDblBuf1Addr                                  C:\Users\20131\AppData\Local\Temp\VMBuilds\new_LMDZ\STM32_genericSTM32F103C\Debug\core.a(usb_regs.c.o)
SetEPDblBuf1Count                                 C:\Users\20131\AppData\Local\Temp\VMBuilds\new_LMDZ\STM32_genericSTM32F103C\Debug\core.a(usb_regs.c.o)
SetEPDblBuffAddr                                  C:\Users\20131\AppData\Local\Temp\VMBuilds\new_LMDZ\STM32_genericSTM32F103C\Debug\core.a(usb_regs.c.o)
SetEPDblBuffCount                                 C:\Users\20131\AppData\Local\Temp\VMBuilds\new_LMDZ\STM32_genericSTM32F103C\Debug\core.a(usb_regs.c.o)
SetEPDoubleBuff                                   C:\Users\20131\AppData\Local\Temp\VMBuilds\new_LMDZ\STM32_genericSTM32F103C\Debug\core.a(usb_regs.c.o)
SetEPRxAddr                                       C:\Users\20131\AppData\Local\Temp\VMBuilds\new_LMDZ\STM32_genericSTM32F103C\Debug\core.a(usb_regs.c.o)
SetEPRxCount                                      C:\Users\20131\AppData\Local\Temp\VMBuilds\new_LMDZ\STM32_genericSTM32F103C\Debug\core.a(usb_regs.c.o)
                                                  C:\Users\20131\AppData\Local\Temp\VMBuilds\new_LMDZ\STM32_genericSTM32F103C\Debug\core.a(usb_core.c.o)
SetEPRxStatus                                     C:\Users\20131\AppData\Local\Temp\VMBuilds\new_LMDZ\STM32_genericSTM32F103C\Debug\core.a(usb_regs.c.o)
SetEPRxValid                                      C:\Users\20131\AppData\Local\Temp\VMBuilds\new_LMDZ\STM32_genericSTM32F103C\Debug\core.a(usb_regs.c.o)
SetEPTxAddr                                       C:\Users\20131\AppData\Local\Temp\VMBuilds\new_LMDZ\STM32_genericSTM32F103C\Debug\core.a(usb_regs.c.o)
SetEPTxCount                                      C:\Users\20131\AppData\Local\Temp\VMBuilds\new_LMDZ\STM32_genericSTM32F103C\Debug\core.a(usb_regs.c.o)
                                                  C:\Users\20131\AppData\Local\Temp\VMBuilds\new_LMDZ\STM32_genericSTM32F103C\Debug\core.a(usb_core.c.o)
SetEPTxStatus                                     C:\Users\20131\AppData\Local\Temp\VMBuilds\new_LMDZ\STM32_genericSTM32F103C\Debug\core.a(usb_regs.c.o)
                                                  C:\Users\20131\AppData\Local\Temp\VMBuilds\new_LMDZ\STM32_genericSTM32F103C\Debug\core.a(usb_core.c.o)
SetEPTxValid                                      C:\Users\20131\AppData\Local\Temp\VMBuilds\new_LMDZ\STM32_genericSTM32F103C\Debug\core.a(usb_regs.c.o)
SetEPType                                         C:\Users\20131\AppData\Local\Temp\VMBuilds\new_LMDZ\STM32_genericSTM32F103C\Debug\core.a(usb_regs.c.o)
SetEP_KIND                                        C:\Users\20131\AppData\Local\Temp\VMBuilds\new_LMDZ\STM32_genericSTM32F103C\Debug\core.a(usb_regs.c.o)
SetISTR                                           C:\Users\20131\AppData\Local\Temp\VMBuilds\new_LMDZ\STM32_genericSTM32F103C\Debug\core.a(usb_regs.c.o)
Set_Status_Out                                    C:\Users\20131\AppData\Local\Temp\VMBuilds\new_LMDZ\STM32_genericSTM32F103C\Debug\core.a(usb_regs.c.o)
Setup0_Process                                    C:\Users\20131\AppData\Local\Temp\VMBuilds\new_LMDZ\STM32_genericSTM32F103C\Debug\core.a(usb_core.c.o)
                                                  C:\Users\20131\AppData\Local\Temp\VMBuilds\new_LMDZ\STM32_genericSTM32F103C\Debug\core.a(usb.c.o)
Standard_ClearFeature                             C:\Users\20131\AppData\Local\Temp\VMBuilds\new_LMDZ\STM32_genericSTM32F103C\Debug\core.a(usb_core.c.o)
Standard_GetConfiguration                         C:\Users\20131\AppData\Local\Temp\VMBuilds\new_LMDZ\STM32_genericSTM32F103C\Debug\core.a(usb_core.c.o)
Standard_GetDescriptorData                        C:\Users\20131\AppData\Local\Temp\VMBuilds\new_LMDZ\STM32_genericSTM32F103C\Debug\core.a(usb_core.c.o)
                                                  C:\Users\20131\AppData\Local\Temp\VMBuilds\new_LMDZ\STM32_genericSTM32F103C\Debug\core.a(usb_cdcacm.c.o)
Standard_GetInterface                             C:\Users\20131\AppData\Local\Temp\VMBuilds\new_LMDZ\STM32_genericSTM32F103C\Debug\core.a(usb_core.c.o)
Standard_GetStatus                                C:\Users\20131\AppData\Local\Temp\VMBuilds\new_LMDZ\STM32_genericSTM32F103C\Debug\core.a(usb_core.c.o)
Standard_SetConfiguration                         C:\Users\20131\AppData\Local\Temp\VMBuilds\new_LMDZ\STM32_genericSTM32F103C\Debug\core.a(usb_core.c.o)
Standard_SetDeviceFeature                         C:\Users\20131\AppData\Local\Temp\VMBuilds\new_LMDZ\STM32_genericSTM32F103C\Debug\core.a(usb_core.c.o)
Standard_SetEndPointFeature                       C:\Users\20131\AppData\Local\Temp\VMBuilds\new_LMDZ\STM32_genericSTM32F103C\Debug\core.a(usb_core.c.o)
Standard_SetInterface                             C:\Users\20131\AppData\Local\Temp\VMBuilds\new_LMDZ\STM32_genericSTM32F103C\Debug\core.a(usb_core.c.o)
StatusInfo                                        C:\Users\20131\AppData\Local\Temp\VMBuilds\new_LMDZ\STM32_genericSTM32F103C\Debug\core.a(usb_core.c.o)
TIMER1                                            C:\Users\20131\AppData\Local\Temp\VMBuilds\new_LMDZ\STM32_genericSTM32F103C\Debug\core.a(timer.c.o)
TIMER2                                            C:\Users\20131\AppData\Local\Temp\VMBuilds\new_LMDZ\STM32_genericSTM32F103C\Debug\core.a(timer.c.o)
TIMER3                                            C:\Users\20131\AppData\Local\Temp\VMBuilds\new_LMDZ\STM32_genericSTM32F103C\Debug\core.a(timer.c.o)
TIMER4                                            C:\Users\20131\AppData\Local\Temp\VMBuilds\new_LMDZ\STM32_genericSTM32F103C\Debug\core.a(timer.c.o)
ToWord                                            C:\Users\20131\AppData\Local\Temp\VMBuilds\new_LMDZ\STM32_genericSTM32F103C\Debug\core.a(usb_regs.c.o)
ToggleDTOG_RX                                     C:\Users\20131\AppData\Local\Temp\VMBuilds\new_LMDZ\STM32_genericSTM32F103C\Debug\core.a(usb_regs.c.o)
ToggleDTOG_TX                                     C:\Users\20131\AppData\Local\Temp\VMBuilds\new_LMDZ\STM32_genericSTM32F103C\Debug\core.a(usb_regs.c.o)
USART1                                            C:\Users\20131\AppData\Local\Temp\VMBuilds\new_LMDZ\STM32_genericSTM32F103C\Debug\core.a(usart_f1.c.o)
                                                  C:\Users\20131\AppData\Local\Temp\VMBCore\arduino16x\7c3dd42e408ebb1ce4dae06851a5a8aa\variant\board.cpp.o
USART2                                            C:\Users\20131\AppData\Local\Temp\VMBuilds\new_LMDZ\STM32_genericSTM32F103C\Debug\core.a(usart_f1.c.o)
                                                  C:\Users\20131\AppData\Local\Temp\VMBCore\arduino16x\7c3dd42e408ebb1ce4dae06851a5a8aa\variant\board.cpp.o
USART3                                            C:\Users\20131\AppData\Local\Temp\VMBuilds\new_LMDZ\STM32_genericSTM32F103C\Debug\core.a(usart_f1.c.o)
                                                  C:\Users\20131\AppData\Local\Temp\VMBCore\arduino16x\7c3dd42e408ebb1ce4dae06851a5a8aa\variant\board.cpp.o
USBLIB                                            C:\Users\20131\AppData\Local\Temp\VMBuilds\new_LMDZ\STM32_genericSTM32F103C\Debug\core.a(usb.c.o)
                                                  C:\Users\20131\AppData\Local\Temp\VMBuilds\new_LMDZ\STM32_genericSTM32F103C\Debug\core.a(usb_cdcacm.c.o)
USB_Init                                          C:\Users\20131\AppData\Local\Temp\VMBuilds\new_LMDZ\STM32_genericSTM32F103C\Debug\core.a(usb_init.c.o)
UserToPMABufferCopy                               C:\Users\20131\AppData\Local\Temp\VMBuilds\new_LMDZ\STM32_genericSTM32F103C\Debug\core.a(usb_mem.c.o)
                                                  C:\Users\20131\AppData\Local\Temp\VMBuilds\new_LMDZ\STM32_genericSTM32F103C\Debug\core.a(usb_core.c.o)
User_Standard_Requests                            C:\Users\20131\AppData\Local\Temp\VMBuilds\new_LMDZ\STM32_genericSTM32F103C\Debug\core.a(usb_cdcacm.c.o)
                                                  C:\Users\20131\AppData\Local\Temp\VMBuilds\new_LMDZ\STM32_genericSTM32F103C\Debug\core.a(usb_init.c.o)
                                                  C:\Users\20131\AppData\Local\Temp\VMBuilds\new_LMDZ\STM32_genericSTM32F103C\Debug\core.a(usb.c.o)
_Jv_RegisterClasses                               c:/users/20131/appdata/local/arduino15/packages/arduino/tools/arm-none-eabi-gcc/4.8.3-2014q1/bin/../lib/gcc/arm-none-eabi/4.8.3/armv7-m/crtbegin.o
__adddf3                                          c:/users/20131/appdata/local/arduino15/packages/arduino/tools/arm-none-eabi-gcc/4.8.3-2014q1/bin/../lib/gcc/arm-none-eabi/4.8.3/armv7-m\libgcc.a(_arm_addsubdf3.o)
__aeabi_cdcmpeq                                   c:/users/20131/appdata/local/arduino15/packages/arduino/tools/arm-none-eabi-gcc/4.8.3-2014q1/bin/../lib/gcc/arm-none-eabi/4.8.3/armv7-m\libgcc.a(_arm_cmpdf2.o)
__aeabi_cdcmple                                   c:/users/20131/appdata/local/arduino15/packages/arduino/tools/arm-none-eabi-gcc/4.8.3-2014q1/bin/../lib/gcc/arm-none-eabi/4.8.3/armv7-m\libgcc.a(_arm_cmpdf2.o)
__aeabi_cdrcmple                                  c:/users/20131/appdata/local/arduino15/packages/arduino/tools/arm-none-eabi-gcc/4.8.3-2014q1/bin/../lib/gcc/arm-none-eabi/4.8.3/armv7-m\libgcc.a(_arm_cmpdf2.o)
__aeabi_d2iz                                      c:/users/20131/appdata/local/arduino15/packages/arduino/tools/arm-none-eabi-gcc/4.8.3-2014q1/bin/../lib/gcc/arm-none-eabi/4.8.3/armv7-m\libgcc.a(_arm_fixdfsi.o)
                                                  C:\Users\20131\AppData\Local\Temp\VMBuilds\new_LMDZ\STM32_genericSTM32F103C\Debug\core.a(Print.cpp.o)
__aeabi_d2lz                                      c:/users/20131/appdata/local/arduino15/packages/arduino/tools/arm-none-eabi-gcc/4.8.3-2014q1/bin/../lib/gcc/arm-none-eabi/4.8.3/armv7-m\libgcc.a(_fixdfdi.o)
                                                  C:\Users\20131\AppData\Local\Temp\VMBuilds\new_LMDZ\STM32_genericSTM32F103C\Debug\core.a(Print.cpp.o)
__aeabi_d2uiz                                     c:/users/20131/appdata/local/arduino15/packages/arduino/tools/arm-none-eabi-gcc/4.8.3-2014q1/bin/../lib/gcc/arm-none-eabi/4.8.3/armv7-m\libgcc.a(_arm_fixunsdfsi.o)
                                                  c:/users/20131/appdata/local/arduino15/packages/arduino/tools/arm-none-eabi-gcc/4.8.3-2014q1/bin/../lib/gcc/arm-none-eabi/4.8.3/armv7-m\libgcc.a(_fixunsdfdi.o)
__aeabi_d2ulz                                     c:/users/20131/appdata/local/arduino15/packages/arduino/tools/arm-none-eabi-gcc/4.8.3-2014q1/bin/../lib/gcc/arm-none-eabi/4.8.3/armv7-m\libgcc.a(_fixunsdfdi.o)
                                                  c:/users/20131/appdata/local/arduino15/packages/arduino/tools/arm-none-eabi-gcc/4.8.3-2014q1/bin/../lib/gcc/arm-none-eabi/4.8.3/armv7-m\libgcc.a(_fixdfdi.o)
__aeabi_dadd                                      c:/users/20131/appdata/local/arduino15/packages/arduino/tools/arm-none-eabi-gcc/4.8.3-2014q1/bin/../lib/gcc/arm-none-eabi/4.8.3/armv7-m\libgcc.a(_arm_addsubdf3.o)
                                                  C:\Users\20131\AppData\Local\Temp\VMBuilds\new_LMDZ\STM32_genericSTM32F103C\Debug\core.a(Print.cpp.o)
                                                  quartileDeviation.cpp.o
                                                  aveRage.cpp.o
__aeabi_dcmpeq                                    c:/users/20131/appdata/local/arduino15/packages/arduino/tools/arm-none-eabi-gcc/4.8.3-2014q1/bin/../lib/gcc/arm-none-eabi/4.8.3/armv7-m\libgcc.a(_arm_cmpdf2.o)
__aeabi_dcmpge                                    c:/users/20131/appdata/local/arduino15/packages/arduino/tools/arm-none-eabi-gcc/4.8.3-2014q1/bin/../lib/gcc/arm-none-eabi/4.8.3/armv7-m\libgcc.a(_arm_cmpdf2.o)
                                                  C:\Users\20131\AppData\Local\Temp\VMBuilds\new_LMDZ\STM32_genericSTM32F103C\Debug\core.a(Print.cpp.o)
__aeabi_dcmpgt                                    c:/users/20131/appdata/local/arduino15/packages/arduino/tools/arm-none-eabi-gcc/4.8.3-2014q1/bin/../lib/gcc/arm-none-eabi/4.8.3/armv7-m\libgcc.a(_arm_cmpdf2.o)
                                                  C:\Users\20131\AppData\Local\Temp\VMBuilds\new_LMDZ\STM32_genericSTM32F103C\Debug\core.a(Print.cpp.o)
__aeabi_dcmple                                    c:/users/20131/appdata/local/arduino15/packages/arduino/tools/arm-none-eabi-gcc/4.8.3-2014q1/bin/../lib/gcc/arm-none-eabi/4.8.3/armv7-m\libgcc.a(_arm_cmpdf2.o)
                                                  C:\Users\20131\AppData\Local\Temp\VMBuilds\new_LMDZ\STM32_genericSTM32F103C\Debug\core.a(Print.cpp.o)
__aeabi_dcmplt                                    c:/users/20131/appdata/local/arduino15/packages/arduino/tools/arm-none-eabi-gcc/4.8.3-2014q1/bin/../lib/gcc/arm-none-eabi/4.8.3/armv7-m\libgcc.a(_arm_cmpdf2.o)
                                                  c:/users/20131/appdata/local/arduino15/packages/arduino/tools/arm-none-eabi-gcc/4.8.3-2014q1/bin/../lib/gcc/arm-none-eabi/4.8.3/armv7-m\libgcc.a(_fixdfdi.o)
                                                  C:\Users\20131\AppData\Local\Temp\VMBuilds\new_LMDZ\STM32_genericSTM32F103C\Debug\core.a(Print.cpp.o)
__aeabi_ddiv                                      c:/users/20131/appdata/local/arduino15/packages/arduino/tools/arm-none-eabi-gcc/4.8.3-2014q1/bin/../lib/gcc/arm-none-eabi/4.8.3/armv7-m\libgcc.a(_arm_muldivdf3.o)
                                                  C:\Users\20131\AppData\Local\Temp\VMBuilds\new_LMDZ\STM32_genericSTM32F103C\Debug\core.a(Print.cpp.o)
                                                  aveRage.cpp.o
__aeabi_dmul                                      c:/users/20131/appdata/local/arduino15/packages/arduino/tools/arm-none-eabi-gcc/4.8.3-2014q1/bin/../lib/gcc/arm-none-eabi/4.8.3/armv7-m\libgcc.a(_arm_muldivdf3.o)
                                                  c:/users/20131/appdata/local/arduino15/packages/arduino/tools/arm-none-eabi-gcc/4.8.3-2014q1/bin/../lib/gcc/arm-none-eabi/4.8.3/armv7-m\libgcc.a(_fixunsdfdi.o)
                                                  C:\Users\20131\AppData\Local\Temp\VMBuilds\new_LMDZ\STM32_genericSTM32F103C\Debug\core.a(Print.cpp.o)
                                                  quartileDeviation.cpp.o
__aeabi_drsub                                     c:/users/20131/appdata/local/arduino15/packages/arduino/tools/arm-none-eabi-gcc/4.8.3-2014q1/bin/../lib/gcc/arm-none-eabi/4.8.3/armv7-m\libgcc.a(_arm_addsubdf3.o)
__aeabi_dsub                                      c:/users/20131/appdata/local/arduino15/packages/arduino/tools/arm-none-eabi-gcc/4.8.3-2014q1/bin/../lib/gcc/arm-none-eabi/4.8.3/armv7-m\libgcc.a(_arm_addsubdf3.o)
                                                  c:/users/20131/appdata/local/arduino15/packages/arduino/tools/arm-none-eabi-gcc/4.8.3-2014q1/bin/../lib/gcc/arm-none-eabi/4.8.3/armv7-m\libgcc.a(_fixunsdfdi.o)
                                                  C:\Users\20131\AppData\Local\Temp\VMBuilds\new_LMDZ\STM32_genericSTM32F103C\Debug\core.a(Print.cpp.o)
                                                  quartileDeviation.cpp.o
__aeabi_f2d                                       c:/users/20131/appdata/local/arduino15/packages/arduino/tools/arm-none-eabi-gcc/4.8.3-2014q1/bin/../lib/gcc/arm-none-eabi/4.8.3/armv7-m\libgcc.a(_arm_addsubdf3.o)
__aeabi_i2d                                       c:/users/20131/appdata/local/arduino15/packages/arduino/tools/arm-none-eabi-gcc/4.8.3-2014q1/bin/../lib/gcc/arm-none-eabi/4.8.3/armv7-m\libgcc.a(_arm_addsubdf3.o)
                                                  C:\Users\20131\AppData\Local\Temp\VMBuilds\new_LMDZ\STM32_genericSTM32F103C\Debug\core.a(Print.cpp.o)
                                                  quartileDeviation.cpp.o
                                                  aveRage.cpp.o
__aeabi_idiv0                                     c:/users/20131/appdata/local/arduino15/packages/arduino/tools/arm-none-eabi-gcc/4.8.3-2014q1/bin/../lib/gcc/arm-none-eabi/4.8.3/armv7-m\libgcc.a(_dvmd_tls.o)
__aeabi_l2d                                       c:/users/20131/appdata/local/arduino15/packages/arduino/tools/arm-none-eabi-gcc/4.8.3-2014q1/bin/../lib/gcc/arm-none-eabi/4.8.3/armv7-m\libgcc.a(_arm_addsubdf3.o)
                                                  C:\Users\20131\AppData\Local\Temp\VMBuilds\new_LMDZ\STM32_genericSTM32F103C\Debug\core.a(Print.cpp.o)
__aeabi_ldiv0                                     c:/users/20131/appdata/local/arduino15/packages/arduino/tools/arm-none-eabi-gcc/4.8.3-2014q1/bin/../lib/gcc/arm-none-eabi/4.8.3/armv7-m\libgcc.a(_dvmd_tls.o)
                                                  c:/users/20131/appdata/local/arduino15/packages/arduino/tools/arm-none-eabi-gcc/4.8.3-2014q1/bin/../lib/gcc/arm-none-eabi/4.8.3/armv7-m\libgcc.a(_aeabi_uldivmod.o)
__aeabi_ui2d                                      c:/users/20131/appdata/local/arduino15/packages/arduino/tools/arm-none-eabi-gcc/4.8.3-2014q1/bin/../lib/gcc/arm-none-eabi/4.8.3/armv7-m\libgcc.a(_arm_addsubdf3.o)
                                                  c:/users/20131/appdata/local/arduino15/packages/arduino/tools/arm-none-eabi-gcc/4.8.3-2014q1/bin/../lib/gcc/arm-none-eabi/4.8.3/armv7-m\libgcc.a(_fixunsdfdi.o)
__aeabi_ul2d                                      c:/users/20131/appdata/local/arduino15/packages/arduino/tools/arm-none-eabi-gcc/4.8.3-2014q1/bin/../lib/gcc/arm-none-eabi/4.8.3/armv7-m\libgcc.a(_arm_addsubdf3.o)
__aeabi_uldivmod                                  c:/users/20131/appdata/local/arduino15/packages/arduino/tools/arm-none-eabi-gcc/4.8.3-2014q1/bin/../lib/gcc/arm-none-eabi/4.8.3/armv7-m\libgcc.a(_aeabi_uldivmod.o)
                                                  C:\Users\20131\AppData\Local\Temp\VMBuilds\new_LMDZ\STM32_genericSTM32F103C\Debug\core.a(Print.cpp.o)
__assert_func                                     C:\Users\20131\AppData\Local\Temp\VMBuilds\new_LMDZ\STM32_genericSTM32F103C\Debug\core.a(util.c.o)
__bss_end__                                       C:\Users\20131\AppData\Local\Temp\VMBCore\arduino16x\7c3dd42e408ebb1ce4dae06851a5a8aa\variant\start_c.c.o
                                                  c:/users/20131/appdata/local/arduino15/packages/arduino/tools/arm-none-eabi-gcc/4.8.3-2014q1/bin/../lib/gcc/arm-none-eabi/4.8.3/../../../../arm-none-eabi/lib/armv7-m/crt0.o
__bss_start__                                     C:\Users\20131\AppData\Local\Temp\VMBCore\arduino16x\7c3dd42e408ebb1ce4dae06851a5a8aa\variant\start_c.c.o
                                                  c:/users/20131/appdata/local/arduino15/packages/arduino/tools/arm-none-eabi-gcc/4.8.3-2014q1/bin/../lib/gcc/arm-none-eabi/4.8.3/../../../../arm-none-eabi/lib/armv7-m/crt0.o
__call_exitprocs                                  c:/users/20131/appdata/local/arduino15/packages/arduino/tools/arm-none-eabi-gcc/4.8.3-2014q1/bin/../lib/gcc/arm-none-eabi/4.8.3/../../../../arm-none-eabi/lib/armv7-m\libc.a(lib_a-__call_atexit.o)
                                                  c:/users/20131/appdata/local/arduino15/packages/arduino/tools/arm-none-eabi-gcc/4.8.3-2014q1/bin/../lib/gcc/arm-none-eabi/4.8.3/../../../../arm-none-eabi/lib/armv7-m\libc.a(lib_a-exit.o)
__cmpdf2                                          c:/users/20131/appdata/local/arduino15/packages/arduino/tools/arm-none-eabi-gcc/4.8.3-2014q1/bin/../lib/gcc/arm-none-eabi/4.8.3/armv7-m\libgcc.a(_arm_cmpdf2.o)
__cxa_pure_virtual                                C:\Users\20131\AppData\Local\Temp\VMBuilds\new_LMDZ\STM32_genericSTM32F103C\Debug\core.a(cxxabi-compat.cpp.o)
                                                  C:\Users\20131\AppData\Local\Temp\VMBuilds\new_LMDZ\STM32_genericSTM32F103C\Debug\core.a(Print.cpp.o)
                                                  C:\Users\20131\AppData\Local\Temp\VMBuilds\new_LMDZ\STM32_genericSTM32F103C\Debug\core.a(HardwareSerial.cpp.o)
__data_end__                                      C:\Users\20131\AppData\Local\Temp\VMBCore\arduino16x\7c3dd42e408ebb1ce4dae06851a5a8aa\variant\start_c.c.o
__data_start__                                    C:\Users\20131\AppData\Local\Temp\VMBCore\arduino16x\7c3dd42e408ebb1ce4dae06851a5a8aa\variant\start_c.c.o
__default_handler                                 C:\Users\20131\AppData\Local\Temp\VMBuilds\new_LMDZ\STM32_genericSTM32F103C\Debug\core.a(isrs.S.o)
__deregister_frame_info                           c:/users/20131/appdata/local/arduino15/packages/arduino/tools/arm-none-eabi-gcc/4.8.3-2014q1/bin/../lib/gcc/arm-none-eabi/4.8.3/armv7-m/crtbegin.o
__divdf3                                          c:/users/20131/appdata/local/arduino15/packages/arduino/tools/arm-none-eabi-gcc/4.8.3-2014q1/bin/../lib/gcc/arm-none-eabi/4.8.3/armv7-m\libgcc.a(_arm_muldivdf3.o)
__divdi3                                          c:/users/20131/appdata/local/arduino15/packages/arduino/tools/arm-none-eabi-gcc/4.8.3-2014q1/bin/../lib/gcc/arm-none-eabi/4.8.3/armv7-m\libgcc.a(_divdi3.o)
                                                  c:/users/20131/appdata/local/arduino15/packages/arduino/tools/arm-none-eabi-gcc/4.8.3-2014q1/bin/../lib/gcc/arm-none-eabi/4.8.3/armv7-m\libgcc.a(bpabi.o)
__dso_handle                                      c:/users/20131/appdata/local/arduino15/packages/arduino/tools/arm-none-eabi-gcc/4.8.3-2014q1/bin/../lib/gcc/arm-none-eabi/4.8.3/armv7-m/crtbegin.o
__eqdf2                                           c:/users/20131/appdata/local/arduino15/packages/arduino/tools/arm-none-eabi-gcc/4.8.3-2014q1/bin/../lib/gcc/arm-none-eabi/4.8.3/armv7-m\libgcc.a(_arm_cmpdf2.o)
__errno                                           c:/users/20131/appdata/local/arduino15/packages/arduino/tools/arm-none-eabi-gcc/4.8.3-2014q1/bin/../lib/gcc/arm-none-eabi/4.8.3/../../../../arm-none-eabi/lib/armv7-m\libc.a(lib_a-errno.o)
                                                  C:\Users\20131\AppData\Local\Temp\VMBCore\arduino16x\7c3dd42e408ebb1ce4dae06851a5a8aa\variant\syscalls.c.o
__error                                           C:\Users\20131\AppData\Local\Temp\VMBuilds\new_LMDZ\STM32_genericSTM32F103C\Debug\core.a(util.c.o)
                                                  C:\Users\20131\AppData\Local\Temp\VMBuilds\new_LMDZ\STM32_genericSTM32F103C\Debug\core.a(exc.S.o)
__exc_busfault                                    C:\Users\20131\AppData\Local\Temp\VMBuilds\new_LMDZ\STM32_genericSTM32F103C\Debug\core.a(exc.S.o)
                                                  C:\Users\20131\AppData\Local\Temp\VMBuilds\new_LMDZ\STM32_genericSTM32F103C\Debug\core.a(vector_table.S.o)
__exc_debug_monitor                               C:\Users\20131\AppData\Local\Temp\VMBuilds\new_LMDZ\STM32_genericSTM32F103C\Debug\core.a(isrs.S.o)
                                                  C:\Users\20131\AppData\Local\Temp\VMBuilds\new_LMDZ\STM32_genericSTM32F103C\Debug\core.a(vector_table.S.o)
__exc_hardfault                                   C:\Users\20131\AppData\Local\Temp\VMBuilds\new_LMDZ\STM32_genericSTM32F103C\Debug\core.a(exc.S.o)
                                                  C:\Users\20131\AppData\Local\Temp\VMBuilds\new_LMDZ\STM32_genericSTM32F103C\Debug\core.a(vector_table.S.o)
__exc_memmanage                                   C:\Users\20131\AppData\Local\Temp\VMBuilds\new_LMDZ\STM32_genericSTM32F103C\Debug\core.a(exc.S.o)
                                                  C:\Users\20131\AppData\Local\Temp\VMBuilds\new_LMDZ\STM32_genericSTM32F103C\Debug\core.a(vector_table.S.o)
__exc_nmi                                         C:\Users\20131\AppData\Local\Temp\VMBuilds\new_LMDZ\STM32_genericSTM32F103C\Debug\core.a(exc.S.o)
                                                  C:\Users\20131\AppData\Local\Temp\VMBuilds\new_LMDZ\STM32_genericSTM32F103C\Debug\core.a(vector_table.S.o)
__exc_pendsv                                      C:\Users\20131\AppData\Local\Temp\VMBuilds\new_LMDZ\STM32_genericSTM32F103C\Debug\core.a(isrs.S.o)
                                                  C:\Users\20131\AppData\Local\Temp\VMBuilds\new_LMDZ\STM32_genericSTM32F103C\Debug\core.a(vector_table.S.o)
__exc_reset                                       C:\Users\20131\AppData\Local\Temp\VMBuilds\new_LMDZ\STM32_genericSTM32F103C\Debug\core.a(vector_table.S.o)
__exc_svc                                         C:\Users\20131\AppData\Local\Temp\VMBuilds\new_LMDZ\STM32_genericSTM32F103C\Debug\core.a(isrs.S.o)
                                                  C:\Users\20131\AppData\Local\Temp\VMBuilds\new_LMDZ\STM32_genericSTM32F103C\Debug\core.a(vector_table.S.o)
__exc_systick                                     C:\Users\20131\AppData\Local\Temp\VMBuilds\new_LMDZ\STM32_genericSTM32F103C\Debug\core.a(systick.c.o)
                                                  C:\Users\20131\AppData\Local\Temp\VMBuilds\new_LMDZ\STM32_genericSTM32F103C\Debug\core.a(vector_table.S.o)
__exc_usagefault                                  C:\Users\20131\AppData\Local\Temp\VMBuilds\new_LMDZ\STM32_genericSTM32F103C\Debug\core.a(exc.S.o)
                                                  C:\Users\20131\AppData\Local\Temp\VMBuilds\new_LMDZ\STM32_genericSTM32F103C\Debug\core.a(vector_table.S.o)
__extendsfdf2                                     c:/users/20131/appdata/local/arduino15/packages/arduino/tools/arm-none-eabi-gcc/4.8.3-2014q1/bin/../lib/gcc/arm-none-eabi/4.8.3/armv7-m\libgcc.a(_arm_addsubdf3.o)
__fini_array_end                                  c:/users/20131/appdata/local/arduino15/packages/arduino/tools/arm-none-eabi-gcc/4.8.3-2014q1/bin/../lib/gcc/arm-none-eabi/4.8.3/../../../../arm-none-eabi/lib/armv7-m\libc.a(lib_a-fini.o)
__fini_array_start                                c:/users/20131/appdata/local/arduino15/packages/arduino/tools/arm-none-eabi-gcc/4.8.3-2014q1/bin/../lib/gcc/arm-none-eabi/4.8.3/../../../../arm-none-eabi/lib/armv7-m\libc.a(lib_a-fini.o)
__fixdfdi                                         c:/users/20131/appdata/local/arduino15/packages/arduino/tools/arm-none-eabi-gcc/4.8.3-2014q1/bin/../lib/gcc/arm-none-eabi/4.8.3/armv7-m\libgcc.a(_fixdfdi.o)
__fixdfsi                                         c:/users/20131/appdata/local/arduino15/packages/arduino/tools/arm-none-eabi-gcc/4.8.3-2014q1/bin/../lib/gcc/arm-none-eabi/4.8.3/armv7-m\libgcc.a(_arm_fixdfsi.o)
__fixunsdfdi                                      c:/users/20131/appdata/local/arduino15/packages/arduino/tools/arm-none-eabi-gcc/4.8.3-2014q1/bin/../lib/gcc/arm-none-eabi/4.8.3/armv7-m\libgcc.a(_fixunsdfdi.o)
__fixunsdfsi                                      c:/users/20131/appdata/local/arduino15/packages/arduino/tools/arm-none-eabi-gcc/4.8.3-2014q1/bin/../lib/gcc/arm-none-eabi/4.8.3/armv7-m\libgcc.a(_arm_fixunsdfsi.o)
__floatdidf                                       c:/users/20131/appdata/local/arduino15/packages/arduino/tools/arm-none-eabi-gcc/4.8.3-2014q1/bin/../lib/gcc/arm-none-eabi/4.8.3/armv7-m\libgcc.a(_arm_addsubdf3.o)
__floatsidf                                       c:/users/20131/appdata/local/arduino15/packages/arduino/tools/arm-none-eabi-gcc/4.8.3-2014q1/bin/../lib/gcc/arm-none-eabi/4.8.3/armv7-m\libgcc.a(_arm_addsubdf3.o)
__floatundidf                                     c:/users/20131/appdata/local/arduino15/packages/arduino/tools/arm-none-eabi-gcc/4.8.3-2014q1/bin/../lib/gcc/arm-none-eabi/4.8.3/armv7-m\libgcc.a(_arm_addsubdf3.o)
__floatunsidf                                     c:/users/20131/appdata/local/arduino15/packages/arduino/tools/arm-none-eabi-gcc/4.8.3-2014q1/bin/../lib/gcc/arm-none-eabi/4.8.3/armv7-m\libgcc.a(_arm_addsubdf3.o)
__gedf2                                           c:/users/20131/appdata/local/arduino15/packages/arduino/tools/arm-none-eabi-gcc/4.8.3-2014q1/bin/../lib/gcc/arm-none-eabi/4.8.3/armv7-m\libgcc.a(_arm_cmpdf2.o)
__gnu_ldivmod_helper                              c:/users/20131/appdata/local/arduino15/packages/arduino/tools/arm-none-eabi-gcc/4.8.3-2014q1/bin/../lib/gcc/arm-none-eabi/4.8.3/armv7-m\libgcc.a(bpabi.o)
__gnu_uldivmod_helper                             c:/users/20131/appdata/local/arduino15/packages/arduino/tools/arm-none-eabi-gcc/4.8.3-2014q1/bin/../lib/gcc/arm-none-eabi/4.8.3/armv7-m\libgcc.a(bpabi.o)
                                                  c:/users/20131/appdata/local/arduino15/packages/arduino/tools/arm-none-eabi-gcc/4.8.3-2014q1/bin/../lib/gcc/arm-none-eabi/4.8.3/armv7-m\libgcc.a(_aeabi_uldivmod.o)
__gtdf2                                           c:/users/20131/appdata/local/arduino15/packages/arduino/tools/arm-none-eabi-gcc/4.8.3-2014q1/bin/../lib/gcc/arm-none-eabi/4.8.3/armv7-m\libgcc.a(_arm_cmpdf2.o)
__init_array_end                                  c:/users/20131/appdata/local/arduino15/packages/arduino/tools/arm-none-eabi-gcc/4.8.3-2014q1/bin/../lib/gcc/arm-none-eabi/4.8.3/../../../../arm-none-eabi/lib/armv7-m\libc.a(lib_a-init.o)
__init_array_start                                c:/users/20131/appdata/local/arduino15/packages/arduino/tools/arm-none-eabi-gcc/4.8.3-2014q1/bin/../lib/gcc/arm-none-eabi/4.8.3/../../../../arm-none-eabi/lib/armv7-m\libc.a(lib_a-init.o)
__irq_adc                                         C:\Users\20131\AppData\Local\Temp\VMBuilds\new_LMDZ\STM32_genericSTM32F103C\Debug\core.a(adc_f1.c.o)
                                                  C:\Users\20131\AppData\Local\Temp\VMBuilds\new_LMDZ\STM32_genericSTM32F103C\Debug\core.a(vector_table.S.o)
__irq_can_rx1                                     C:\Users\20131\AppData\Local\Temp\VMBuilds\new_LMDZ\STM32_genericSTM32F103C\Debug\core.a(isrs.S.o)
                                                  C:\Users\20131\AppData\Local\Temp\VMBuilds\new_LMDZ\STM32_genericSTM32F103C\Debug\core.a(vector_table.S.o)
__irq_can_sce                                     C:\Users\20131\AppData\Local\Temp\VMBuilds\new_LMDZ\STM32_genericSTM32F103C\Debug\core.a(isrs.S.o)
                                                  C:\Users\20131\AppData\Local\Temp\VMBuilds\new_LMDZ\STM32_genericSTM32F103C\Debug\core.a(vector_table.S.o)
__irq_dma1_channel1                               C:\Users\20131\AppData\Local\Temp\VMBuilds\new_LMDZ\STM32_genericSTM32F103C\Debug\core.a(dma_f1.c.o)
                                                  C:\Users\20131\AppData\Local\Temp\VMBuilds\new_LMDZ\STM32_genericSTM32F103C\Debug\core.a(vector_table.S.o)
__irq_dma1_channel2                               C:\Users\20131\AppData\Local\Temp\VMBuilds\new_LMDZ\STM32_genericSTM32F103C\Debug\core.a(dma_f1.c.o)
                                                  C:\Users\20131\AppData\Local\Temp\VMBuilds\new_LMDZ\STM32_genericSTM32F103C\Debug\core.a(vector_table.S.o)
__irq_dma1_channel3                               C:\Users\20131\AppData\Local\Temp\VMBuilds\new_LMDZ\STM32_genericSTM32F103C\Debug\core.a(dma_f1.c.o)
                                                  C:\Users\20131\AppData\Local\Temp\VMBuilds\new_LMDZ\STM32_genericSTM32F103C\Debug\core.a(vector_table.S.o)
__irq_dma1_channel4                               C:\Users\20131\AppData\Local\Temp\VMBuilds\new_LMDZ\STM32_genericSTM32F103C\Debug\core.a(dma_f1.c.o)
                                                  C:\Users\20131\AppData\Local\Temp\VMBuilds\new_LMDZ\STM32_genericSTM32F103C\Debug\core.a(vector_table.S.o)
__irq_dma1_channel5                               C:\Users\20131\AppData\Local\Temp\VMBuilds\new_LMDZ\STM32_genericSTM32F103C\Debug\core.a(dma_f1.c.o)
                                                  C:\Users\20131\AppData\Local\Temp\VMBuilds\new_LMDZ\STM32_genericSTM32F103C\Debug\core.a(vector_table.S.o)
__irq_dma1_channel6                               C:\Users\20131\AppData\Local\Temp\VMBuilds\new_LMDZ\STM32_genericSTM32F103C\Debug\core.a(dma_f1.c.o)
                                                  C:\Users\20131\AppData\Local\Temp\VMBuilds\new_LMDZ\STM32_genericSTM32F103C\Debug\core.a(vector_table.S.o)
__irq_dma1_channel7                               C:\Users\20131\AppData\Local\Temp\VMBuilds\new_LMDZ\STM32_genericSTM32F103C\Debug\core.a(dma_f1.c.o)
                                                  C:\Users\20131\AppData\Local\Temp\VMBuilds\new_LMDZ\STM32_genericSTM32F103C\Debug\core.a(vector_table.S.o)
__irq_exti0                                       C:\Users\20131\AppData\Local\Temp\VMBuilds\new_LMDZ\STM32_genericSTM32F103C\Debug\core.a(exti.c.o)
                                                  C:\Users\20131\AppData\Local\Temp\VMBuilds\new_LMDZ\STM32_genericSTM32F103C\Debug\core.a(vector_table.S.o)
__irq_exti1                                       C:\Users\20131\AppData\Local\Temp\VMBuilds\new_LMDZ\STM32_genericSTM32F103C\Debug\core.a(exti.c.o)
                                                  C:\Users\20131\AppData\Local\Temp\VMBuilds\new_LMDZ\STM32_genericSTM32F103C\Debug\core.a(vector_table.S.o)
__irq_exti15_10                                   C:\Users\20131\AppData\Local\Temp\VMBuilds\new_LMDZ\STM32_genericSTM32F103C\Debug\core.a(exti.c.o)
                                                  C:\Users\20131\AppData\Local\Temp\VMBuilds\new_LMDZ\STM32_genericSTM32F103C\Debug\core.a(vector_table.S.o)
__irq_exti2                                       C:\Users\20131\AppData\Local\Temp\VMBuilds\new_LMDZ\STM32_genericSTM32F103C\Debug\core.a(exti.c.o)
                                                  C:\Users\20131\AppData\Local\Temp\VMBuilds\new_LMDZ\STM32_genericSTM32F103C\Debug\core.a(vector_table.S.o)
__irq_exti3                                       C:\Users\20131\AppData\Local\Temp\VMBuilds\new_LMDZ\STM32_genericSTM32F103C\Debug\core.a(exti.c.o)
                                                  C:\Users\20131\AppData\Local\Temp\VMBuilds\new_LMDZ\STM32_genericSTM32F103C\Debug\core.a(vector_table.S.o)
__irq_exti4                                       C:\Users\20131\AppData\Local\Temp\VMBuilds\new_LMDZ\STM32_genericSTM32F103C\Debug\core.a(exti.c.o)
                                                  C:\Users\20131\AppData\Local\Temp\VMBuilds\new_LMDZ\STM32_genericSTM32F103C\Debug\core.a(vector_table.S.o)
__irq_exti9_5                                     C:\Users\20131\AppData\Local\Temp\VMBuilds\new_LMDZ\STM32_genericSTM32F103C\Debug\core.a(exti.c.o)
                                                  C:\Users\20131\AppData\Local\Temp\VMBuilds\new_LMDZ\STM32_genericSTM32F103C\Debug\core.a(vector_table.S.o)
__irq_flash                                       C:\Users\20131\AppData\Local\Temp\VMBuilds\new_LMDZ\STM32_genericSTM32F103C\Debug\core.a(isrs.S.o)
                                                  C:\Users\20131\AppData\Local\Temp\VMBuilds\new_LMDZ\STM32_genericSTM32F103C\Debug\core.a(vector_table.S.o)
__irq_i2c1_er                                     C:\Users\20131\AppData\Local\Temp\VMBuilds\new_LMDZ\STM32_genericSTM32F103C\Debug\core.a(i2c_f1.c.o)
                                                  C:\Users\20131\AppData\Local\Temp\VMBuilds\new_LMDZ\STM32_genericSTM32F103C\Debug\core.a(vector_table.S.o)
__irq_i2c1_ev                                     C:\Users\20131\AppData\Local\Temp\VMBuilds\new_LMDZ\STM32_genericSTM32F103C\Debug\core.a(i2c_f1.c.o)
                                                  C:\Users\20131\AppData\Local\Temp\VMBuilds\new_LMDZ\STM32_genericSTM32F103C\Debug\core.a(vector_table.S.o)
__irq_i2c2_er                                     C:\Users\20131\AppData\Local\Temp\VMBuilds\new_LMDZ\STM32_genericSTM32F103C\Debug\core.a(i2c_f1.c.o)
                                                  C:\Users\20131\AppData\Local\Temp\VMBuilds\new_LMDZ\STM32_genericSTM32F103C\Debug\core.a(vector_table.S.o)
__irq_i2c2_ev                                     C:\Users\20131\AppData\Local\Temp\VMBuilds\new_LMDZ\STM32_genericSTM32F103C\Debug\core.a(i2c_f1.c.o)
                                                  C:\Users\20131\AppData\Local\Temp\VMBuilds\new_LMDZ\STM32_genericSTM32F103C\Debug\core.a(vector_table.S.o)
__irq_pvd                                         C:\Users\20131\AppData\Local\Temp\VMBuilds\new_LMDZ\STM32_genericSTM32F103C\Debug\core.a(isrs.S.o)
                                                  C:\Users\20131\AppData\Local\Temp\VMBuilds\new_LMDZ\STM32_genericSTM32F103C\Debug\core.a(vector_table.S.o)
__irq_rcc                                         C:\Users\20131\AppData\Local\Temp\VMBuilds\new_LMDZ\STM32_genericSTM32F103C\Debug\core.a(isrs.S.o)
                                                  C:\Users\20131\AppData\Local\Temp\VMBuilds\new_LMDZ\STM32_genericSTM32F103C\Debug\core.a(vector_table.S.o)
__irq_rtc                                         C:\Users\20131\AppData\Local\Temp\VMBuilds\new_LMDZ\STM32_genericSTM32F103C\Debug\core.a(isrs.S.o)
                                                  C:\Users\20131\AppData\Local\Temp\VMBuilds\new_LMDZ\STM32_genericSTM32F103C\Debug\core.a(vector_table.S.o)
__irq_rtcalarm                                    C:\Users\20131\AppData\Local\Temp\VMBuilds\new_LMDZ\STM32_genericSTM32F103C\Debug\core.a(isrs.S.o)
                                                  C:\Users\20131\AppData\Local\Temp\VMBuilds\new_LMDZ\STM32_genericSTM32F103C\Debug\core.a(vector_table.S.o)
__irq_spi1                                        C:\Users\20131\AppData\Local\Temp\VMBuilds\new_LMDZ\STM32_genericSTM32F103C\Debug\core.a(isrs.S.o)
                                                  C:\Users\20131\AppData\Local\Temp\VMBuilds\new_LMDZ\STM32_genericSTM32F103C\Debug\core.a(vector_table.S.o)
__irq_spi2                                        C:\Users\20131\AppData\Local\Temp\VMBuilds\new_LMDZ\STM32_genericSTM32F103C\Debug\core.a(isrs.S.o)
                                                  C:\Users\20131\AppData\Local\Temp\VMBuilds\new_LMDZ\STM32_genericSTM32F103C\Debug\core.a(vector_table.S.o)
__irq_tamper                                      C:\Users\20131\AppData\Local\Temp\VMBuilds\new_LMDZ\STM32_genericSTM32F103C\Debug\core.a(isrs.S.o)
                                                  C:\Users\20131\AppData\Local\Temp\VMBuilds\new_LMDZ\STM32_genericSTM32F103C\Debug\core.a(vector_table.S.o)
__irq_tim1_brk                                    C:\Users\20131\AppData\Local\Temp\VMBuilds\new_LMDZ\STM32_genericSTM32F103C\Debug\core.a(timer.c.o)
                                                  C:\Users\20131\AppData\Local\Temp\VMBuilds\new_LMDZ\STM32_genericSTM32F103C\Debug\core.a(vector_table.S.o)
__irq_tim1_cc                                     C:\Users\20131\AppData\Local\Temp\VMBuilds\new_LMDZ\STM32_genericSTM32F103C\Debug\core.a(timer.c.o)
                                                  C:\Users\20131\AppData\Local\Temp\VMBuilds\new_LMDZ\STM32_genericSTM32F103C\Debug\core.a(vector_table.S.o)
__irq_tim1_trg_com                                C:\Users\20131\AppData\Local\Temp\VMBuilds\new_LMDZ\STM32_genericSTM32F103C\Debug\core.a(timer.c.o)
                                                  C:\Users\20131\AppData\Local\Temp\VMBuilds\new_LMDZ\STM32_genericSTM32F103C\Debug\core.a(vector_table.S.o)
__irq_tim1_up                                     C:\Users\20131\AppData\Local\Temp\VMBuilds\new_LMDZ\STM32_genericSTM32F103C\Debug\core.a(timer.c.o)
                                                  C:\Users\20131\AppData\Local\Temp\VMBuilds\new_LMDZ\STM32_genericSTM32F103C\Debug\core.a(vector_table.S.o)
__irq_tim2                                        C:\Users\20131\AppData\Local\Temp\VMBuilds\new_LMDZ\STM32_genericSTM32F103C\Debug\core.a(timer.c.o)
                                                  C:\Users\20131\AppData\Local\Temp\VMBuilds\new_LMDZ\STM32_genericSTM32F103C\Debug\core.a(vector_table.S.o)
__irq_tim3                                        C:\Users\20131\AppData\Local\Temp\VMBuilds\new_LMDZ\STM32_genericSTM32F103C\Debug\core.a(timer.c.o)
                                                  C:\Users\20131\AppData\Local\Temp\VMBuilds\new_LMDZ\STM32_genericSTM32F103C\Debug\core.a(vector_table.S.o)
__irq_tim4                                        C:\Users\20131\AppData\Local\Temp\VMBuilds\new_LMDZ\STM32_genericSTM32F103C\Debug\core.a(timer.c.o)
                                                  C:\Users\20131\AppData\Local\Temp\VMBuilds\new_LMDZ\STM32_genericSTM32F103C\Debug\core.a(vector_table.S.o)
__irq_usart1                                      C:\Users\20131\AppData\Local\Temp\VMBuilds\new_LMDZ\STM32_genericSTM32F103C\Debug\core.a(usart_f1.c.o)
                                                  C:\Users\20131\AppData\Local\Temp\VMBuilds\new_LMDZ\STM32_genericSTM32F103C\Debug\core.a(vector_table.S.o)
__irq_usart2                                      C:\Users\20131\AppData\Local\Temp\VMBuilds\new_LMDZ\STM32_genericSTM32F103C\Debug\core.a(usart_f1.c.o)
                                                  C:\Users\20131\AppData\Local\Temp\VMBuilds\new_LMDZ\STM32_genericSTM32F103C\Debug\core.a(vector_table.S.o)
__irq_usart3                                      C:\Users\20131\AppData\Local\Temp\VMBuilds\new_LMDZ\STM32_genericSTM32F103C\Debug\core.a(usart_f1.c.o)
                                                  C:\Users\20131\AppData\Local\Temp\VMBuilds\new_LMDZ\STM32_genericSTM32F103C\Debug\core.a(vector_table.S.o)
__irq_usb_hp_can_tx                               C:\Users\20131\AppData\Local\Temp\VMBuilds\new_LMDZ\STM32_genericSTM32F103C\Debug\core.a(isrs.S.o)
                                                  C:\Users\20131\AppData\Local\Temp\VMBuilds\new_LMDZ\STM32_genericSTM32F103C\Debug\core.a(vector_table.S.o)
__irq_usb_lp_can_rx0                              C:\Users\20131\AppData\Local\Temp\VMBuilds\new_LMDZ\STM32_genericSTM32F103C\Debug\core.a(usb.c.o)
                                                  C:\Users\20131\AppData\Local\Temp\VMBuilds\new_LMDZ\STM32_genericSTM32F103C\Debug\core.a(vector_table.S.o)
__irq_usbwakeup                                   C:\Users\20131\AppData\Local\Temp\VMBuilds\new_LMDZ\STM32_genericSTM32F103C\Debug\core.a(isrs.S.o)
                                                  C:\Users\20131\AppData\Local\Temp\VMBuilds\new_LMDZ\STM32_genericSTM32F103C\Debug\core.a(vector_table.S.o)
__irq_wwdg                                        C:\Users\20131\AppData\Local\Temp\VMBuilds\new_LMDZ\STM32_genericSTM32F103C\Debug\core.a(isrs.S.o)
                                                  C:\Users\20131\AppData\Local\Temp\VMBuilds\new_LMDZ\STM32_genericSTM32F103C\Debug\core.a(vector_table.S.o)
__ledf2                                           c:/users/20131/appdata/local/arduino15/packages/arduino/tools/arm-none-eabi-gcc/4.8.3-2014q1/bin/../lib/gcc/arm-none-eabi/4.8.3/armv7-m\libgcc.a(_arm_cmpdf2.o)
__libc_fini                                       c:/users/20131/appdata/local/arduino15/packages/arduino/tools/arm-none-eabi-gcc/4.8.3-2014q1/bin/../lib/gcc/arm-none-eabi/4.8.3/../../../../arm-none-eabi/lib/armv7-m\libc.a(lib_a-__call_atexit.o)
__libc_fini_array                                 c:/users/20131/appdata/local/arduino15/packages/arduino/tools/arm-none-eabi-gcc/4.8.3-2014q1/bin/../lib/gcc/arm-none-eabi/4.8.3/../../../../arm-none-eabi/lib/armv7-m\libc.a(lib_a-fini.o)
                                                  c:/users/20131/appdata/local/arduino15/packages/arduino/tools/arm-none-eabi-gcc/4.8.3-2014q1/bin/../lib/gcc/arm-none-eabi/4.8.3/../../../../arm-none-eabi/lib/armv7-m\libc.a(lib_a-__call_atexit.o)
                                                  c:/users/20131/appdata/local/arduino15/packages/arduino/tools/arm-none-eabi-gcc/4.8.3-2014q1/bin/../lib/gcc/arm-none-eabi/4.8.3/../../../../arm-none-eabi/lib/armv7-m/crt0.o
__libc_init_array                                 c:/users/20131/appdata/local/arduino15/packages/arduino/tools/arm-none-eabi-gcc/4.8.3-2014q1/bin/../lib/gcc/arm-none-eabi/4.8.3/../../../../arm-none-eabi/lib/armv7-m\libc.a(lib_a-init.o)
                                                  C:\Users\20131\AppData\Local\Temp\VMBCore\arduino16x\7c3dd42e408ebb1ce4dae06851a5a8aa\variant\start_c.c.o
                                                  c:/users/20131/appdata/local/arduino15/packages/arduino/tools/arm-none-eabi-gcc/4.8.3-2014q1/bin/../lib/gcc/arm-none-eabi/4.8.3/../../../../arm-none-eabi/lib/armv7-m/crt0.o
__lm_enable_error_usart                           C:\Users\20131\AppData\Local\Temp\VMBuilds\new_LMDZ\STM32_genericSTM32F103C\Debug\core.a(util.c.o)
__lm_error                                        C:\Users\20131\AppData\Local\Temp\VMBuilds\new_LMDZ\STM32_genericSTM32F103C\Debug\core.a(util.c.o)
__ltdf2                                           c:/users/20131/appdata/local/arduino15/packages/arduino/tools/arm-none-eabi-gcc/4.8.3-2014q1/bin/../lib/gcc/arm-none-eabi/4.8.3/armv7-m\libgcc.a(_arm_cmpdf2.o)
__msp_init                                        C:\Users\20131\AppData\Local\Temp\VMBuilds\new_LMDZ\STM32_genericSTM32F103C\Debug\core.a(vector_table.S.o)
                                                  C:\Users\20131\AppData\Local\Temp\VMBCore\arduino16x\7c3dd42e408ebb1ce4dae06851a5a8aa\variant\start.S.o
__muldf3                                          c:/users/20131/appdata/local/arduino15/packages/arduino/tools/arm-none-eabi-gcc/4.8.3-2014q1/bin/../lib/gcc/arm-none-eabi/4.8.3/armv7-m\libgcc.a(_arm_muldivdf3.o)
__nedf2                                           c:/users/20131/appdata/local/arduino15/packages/arduino/tools/arm-none-eabi-gcc/4.8.3-2014q1/bin/../lib/gcc/arm-none-eabi/4.8.3/armv7-m\libgcc.a(_arm_cmpdf2.o)
__preinit_array_end                               c:/users/20131/appdata/local/arduino15/packages/arduino/tools/arm-none-eabi-gcc/4.8.3-2014q1/bin/../lib/gcc/arm-none-eabi/4.8.3/../../../../arm-none-eabi/lib/armv7-m\libc.a(lib_a-init.o)
__preinit_array_start                             c:/users/20131/appdata/local/arduino15/packages/arduino/tools/arm-none-eabi-gcc/4.8.3-2014q1/bin/../lib/gcc/arm-none-eabi/4.8.3/../../../../arm-none-eabi/lib/armv7-m\libc.a(lib_a-init.o)
__register_exitproc                               c:/users/20131/appdata/local/arduino15/packages/arduino/tools/arm-none-eabi-gcc/4.8.3-2014q1/bin/../lib/gcc/arm-none-eabi/4.8.3/../../../../arm-none-eabi/lib/armv7-m\libc.a(lib_a-__atexit.o)
                                                  c:/users/20131/appdata/local/arduino15/packages/arduino/tools/arm-none-eabi-gcc/4.8.3-2014q1/bin/../lib/gcc/arm-none-eabi/4.8.3/../../../../arm-none-eabi/lib/armv7-m\libc.a(lib_a-atexit.o)
__register_frame_info                             c:/users/20131/appdata/local/arduino15/packages/arduino/tools/arm-none-eabi-gcc/4.8.3-2014q1/bin/../lib/gcc/arm-none-eabi/4.8.3/armv7-m/crtbegin.o
__stack                                           c:/users/20131/appdata/local/arduino15/packages/arduino/tools/arm-none-eabi-gcc/4.8.3-2014q1/bin/../lib/gcc/arm-none-eabi/4.8.3/../../../../arm-none-eabi/lib/armv7-m/crt0.o
__start__                                         C:\Users\20131\AppData\Local\Temp\VMBCore\arduino16x\7c3dd42e408ebb1ce4dae06851a5a8aa\variant\start.S.o
__stm32_vector_table                              C:\Users\20131\AppData\Local\Temp\VMBuilds\new_LMDZ\STM32_genericSTM32F103C\Debug\core.a(vector_table.S.o)
__stm32reservedexception10                        C:\Users\20131\AppData\Local\Temp\VMBuilds\new_LMDZ\STM32_genericSTM32F103C\Debug\core.a(isrs.S.o)
                                                  C:\Users\20131\AppData\Local\Temp\VMBuilds\new_LMDZ\STM32_genericSTM32F103C\Debug\core.a(vector_table.S.o)
__stm32reservedexception13                        C:\Users\20131\AppData\Local\Temp\VMBuilds\new_LMDZ\STM32_genericSTM32F103C\Debug\core.a(isrs.S.o)
                                                  C:\Users\20131\AppData\Local\Temp\VMBuilds\new_LMDZ\STM32_genericSTM32F103C\Debug\core.a(vector_table.S.o)
__stm32reservedexception7                         C:\Users\20131\AppData\Local\Temp\VMBuilds\new_LMDZ\STM32_genericSTM32F103C\Debug\core.a(isrs.S.o)
                                                  C:\Users\20131\AppData\Local\Temp\VMBuilds\new_LMDZ\STM32_genericSTM32F103C\Debug\core.a(vector_table.S.o)
__stm32reservedexception8                         C:\Users\20131\AppData\Local\Temp\VMBuilds\new_LMDZ\STM32_genericSTM32F103C\Debug\core.a(isrs.S.o)
                                                  C:\Users\20131\AppData\Local\Temp\VMBuilds\new_LMDZ\STM32_genericSTM32F103C\Debug\core.a(vector_table.S.o)
__stm32reservedexception9                         C:\Users\20131\AppData\Local\Temp\VMBuilds\new_LMDZ\STM32_genericSTM32F103C\Debug\core.a(isrs.S.o)
                                                  C:\Users\20131\AppData\Local\Temp\VMBuilds\new_LMDZ\STM32_genericSTM32F103C\Debug\core.a(vector_table.S.o)
__subdf3                                          c:/users/20131/appdata/local/arduino15/packages/arduino/tools/arm-none-eabi-gcc/4.8.3-2014q1/bin/../lib/gcc/arm-none-eabi/4.8.3/armv7-m\libgcc.a(_arm_addsubdf3.o)
__udivdi3                                         c:/users/20131/appdata/local/arduino15/packages/arduino/tools/arm-none-eabi-gcc/4.8.3-2014q1/bin/../lib/gcc/arm-none-eabi/4.8.3/armv7-m\libgcc.a(_udivdi3.o)
                                                  c:/users/20131/appdata/local/arduino15/packages/arduino/tools/arm-none-eabi-gcc/4.8.3-2014q1/bin/../lib/gcc/arm-none-eabi/4.8.3/armv7-m\libgcc.a(bpabi.o)
_close                                            C:\Users\20131\AppData\Local\Temp\VMBCore\arduino16x\7c3dd42e408ebb1ce4dae06851a5a8aa\variant\syscalls.c.o
_dma_addr_type                                    C:\Users\20131\AppData\Local\Temp\VMBuilds\new_LMDZ\STM32_genericSTM32F103C\Debug\core.a(dma.c.o)
                                                  C:\Users\20131\AppData\Local\Temp\VMBuilds\new_LMDZ\STM32_genericSTM32F103C\Debug\core.a(dma_f1.c.o)
_exit                                             C:\Users\20131\AppData\Local\Temp\VMBCore\arduino16x\7c3dd42e408ebb1ce4dae06851a5a8aa\variant\syscalls.c.o
                                                  c:/users/20131/appdata/local/arduino15/packages/arduino/tools/arm-none-eabi-gcc/4.8.3-2014q1/bin/../lib/gcc/arm-none-eabi/4.8.3/../../../../arm-none-eabi/lib/armv7-m\libc.a(lib_a-exit.o)
_fail                                             C:\Users\20131\AppData\Local\Temp\VMBuilds\new_LMDZ\STM32_genericSTM32F103C\Debug\core.a(util.c.o)
                                                  C:\Users\20131\AppData\Local\Temp\VMBuilds\new_LMDZ\STM32_genericSTM32F103C\Debug\core.a(usb.c.o)
                                                  C:\Users\20131\AppData\Local\Temp\VMBuilds\new_LMDZ\STM32_genericSTM32F103C\Debug\core.a(timer.c.o)
                                                  C:\Users\20131\AppData\Local\Temp\VMBuilds\new_LMDZ\STM32_genericSTM32F103C\Debug\core.a(rcc_f1.c.o)
                                                  C:\Users\20131\AppData\Local\Temp\VMBuilds\new_LMDZ\STM32_genericSTM32F103C\Debug\core.a(dma_f1.c.o)
_fini                                             c:/users/20131/appdata/local/arduino15/packages/arduino/tools/arm-none-eabi-gcc/4.8.3-2014q1/bin/../lib/gcc/arm-none-eabi/4.8.3/armv7-m/crti.o
                                                  c:/users/20131/appdata/local/arduino15/packages/arduino/tools/arm-none-eabi-gcc/4.8.3-2014q1/bin/../lib/gcc/arm-none-eabi/4.8.3/../../../../arm-none-eabi/lib/armv7-m\libc.a(lib_a-fini.o)
_fstat                                            C:\Users\20131\AppData\Local\Temp\VMBCore\arduino16x\7c3dd42e408ebb1ce4dae06851a5a8aa\variant\syscalls.c.o
_global_impure_ptr                                c:/users/20131/appdata/local/arduino15/packages/arduino/tools/arm-none-eabi-gcc/4.8.3-2014q1/bin/../lib/gcc/arm-none-eabi/4.8.3/../../../../arm-none-eabi/lib/armv7-m\libc.a(lib_a-impure.o)
                                                  c:/users/20131/appdata/local/arduino15/packages/arduino/tools/arm-none-eabi-gcc/4.8.3-2014q1/bin/../lib/gcc/arm-none-eabi/4.8.3/../../../../arm-none-eabi/lib/armv7-m\libc.a(lib_a-__atexit.o)
                                                  c:/users/20131/appdata/local/arduino15/packages/arduino/tools/arm-none-eabi-gcc/4.8.3-2014q1/bin/../lib/gcc/arm-none-eabi/4.8.3/../../../../arm-none-eabi/lib/armv7-m\libc.a(lib_a-__call_atexit.o)
                                                  c:/users/20131/appdata/local/arduino15/packages/arduino/tools/arm-none-eabi-gcc/4.8.3-2014q1/bin/../lib/gcc/arm-none-eabi/4.8.3/../../../../arm-none-eabi/lib/armv7-m\libc.a(lib_a-exit.o)
_i2c_irq_error_handler                            C:\Users\20131\AppData\Local\Temp\VMBuilds\new_LMDZ\STM32_genericSTM32F103C\Debug\core.a(i2c.c.o)
                                                  C:\Users\20131\AppData\Local\Temp\VMBuilds\new_LMDZ\STM32_genericSTM32F103C\Debug\core.a(i2c_f1.c.o)
_i2c_irq_handler                                  C:\Users\20131\AppData\Local\Temp\VMBuilds\new_LMDZ\STM32_genericSTM32F103C\Debug\core.a(i2c.c.o)
                                                  C:\Users\20131\AppData\Local\Temp\VMBuilds\new_LMDZ\STM32_genericSTM32F103C\Debug\core.a(i2c_f1.c.o)
_i2c_irq_priority_fixup                           C:\Users\20131\AppData\Local\Temp\VMBuilds\new_LMDZ\STM32_genericSTM32F103C\Debug\core.a(i2c_f1.c.o)
                                                  C:\Users\20131\AppData\Local\Temp\VMBuilds\new_LMDZ\STM32_genericSTM32F103C\Debug\core.a(i2c.c.o)
_impure_ptr                                       c:/users/20131/appdata/local/arduino15/packages/arduino/tools/arm-none-eabi-gcc/4.8.3-2014q1/bin/../lib/gcc/arm-none-eabi/4.8.3/../../../../arm-none-eabi/lib/armv7-m\libc.a(lib_a-impure.o)
                                                  c:/users/20131/appdata/local/arduino15/packages/arduino/tools/arm-none-eabi-gcc/4.8.3-2014q1/bin/../lib/gcc/arm-none-eabi/4.8.3/../../../../arm-none-eabi/lib/armv7-m\libc.a(lib_a-errno.o)
_init                                             c:/users/20131/appdata/local/arduino15/packages/arduino/tools/arm-none-eabi-gcc/4.8.3-2014q1/bin/../lib/gcc/arm-none-eabi/4.8.3/armv7-m/crti.o
                                                  c:/users/20131/appdata/local/arduino15/packages/arduino/tools/arm-none-eabi-gcc/4.8.3-2014q1/bin/../lib/gcc/arm-none-eabi/4.8.3/../../../../arm-none-eabi/lib/armv7-m\libc.a(lib_a-init.o)
_isatty                                           C:\Users\20131\AppData\Local\Temp\VMBCore\arduino16x\7c3dd42e408ebb1ce4dae06851a5a8aa\variant\syscalls.c.o
_lm_heap_end                                      C:\Users\20131\AppData\Local\Temp\VMBCore\arduino16x\7c3dd42e408ebb1ce4dae06851a5a8aa\variant\syscalls.c.o
_lm_heap_start                                    C:\Users\20131\AppData\Local\Temp\VMBCore\arduino16x\7c3dd42e408ebb1ce4dae06851a5a8aa\variant\syscalls.c.o
_lm_rom_img_cfgp                                  C:\Users\20131\AppData\Local\Temp\VMBCore\arduino16x\7c3dd42e408ebb1ce4dae06851a5a8aa\variant\start_c.c.o
_lseek                                            C:\Users\20131\AppData\Local\Temp\VMBCore\arduino16x\7c3dd42e408ebb1ce4dae06851a5a8aa\variant\syscalls.c.o
_mainCRTStartup                                   c:/users/20131/appdata/local/arduino15/packages/arduino/tools/arm-none-eabi-gcc/4.8.3-2014q1/bin/../lib/gcc/arm-none-eabi/4.8.3/../../../../arm-none-eabi/lib/armv7-m/crt0.o
_open                                             C:\Users\20131\AppData\Local\Temp\VMBCore\arduino16x\7c3dd42e408ebb1ce4dae06851a5a8aa\variant\syscalls.c.o
_read                                             C:\Users\20131\AppData\Local\Temp\VMBCore\arduino16x\7c3dd42e408ebb1ce4dae06851a5a8aa\variant\syscalls.c.o
_sbrk                                             C:\Users\20131\AppData\Local\Temp\VMBCore\arduino16x\7c3dd42e408ebb1ce4dae06851a5a8aa\variant\syscalls.c.o
_start                                            c:/users/20131/appdata/local/arduino15/packages/arduino/tools/arm-none-eabi-gcc/4.8.3-2014q1/bin/../lib/gcc/arm-none-eabi/4.8.3/../../../../arm-none-eabi/lib/armv7-m/crt0.o
_usart_clock_freq                                 C:\Users\20131\AppData\Local\Temp\VMBuilds\new_LMDZ\STM32_genericSTM32F103C\Debug\core.a(usart_private.c.o)
                                                  C:\Users\20131\AppData\Local\Temp\VMBuilds\new_LMDZ\STM32_genericSTM32F103C\Debug\core.a(usart_f1.c.o)
_write                                            C:\Users\20131\AppData\Local\Temp\VMBCore\arduino16x\7c3dd42e408ebb1ce4dae06851a5a8aa\variant\syscalls.c.o
abort                                             C:\Users\20131\AppData\Local\Temp\VMBuilds\new_LMDZ\STM32_genericSTM32F103C\Debug\core.a(util.c.o)
adc1                                              C:\Users\20131\AppData\Local\Temp\VMBuilds\new_LMDZ\STM32_genericSTM32F103C\Debug\core.a(adc_f1.c.o)
                                                  C:\Users\20131\AppData\Local\Temp\VMBCore\arduino16x\7c3dd42e408ebb1ce4dae06851a5a8aa\variant\board.cpp.o
adc2                                              C:\Users\20131\AppData\Local\Temp\VMBuilds\new_LMDZ\STM32_genericSTM32F103C\Debug\core.a(adc_f1.c.o)
adc_attach_interrupt                              C:\Users\20131\AppData\Local\Temp\VMBuilds\new_LMDZ\STM32_genericSTM32F103C\Debug\core.a(adc_f1.c.o)
adc_calibrate                                     C:\Users\20131\AppData\Local\Temp\VMBuilds\new_LMDZ\STM32_genericSTM32F103C\Debug\core.a(adc_f1.c.o)
adc_config_gpio                                   C:\Users\20131\AppData\Local\Temp\VMBuilds\new_LMDZ\STM32_genericSTM32F103C\Debug\core.a(adc_f1.c.o)
adc_enable_irq                                    C:\Users\20131\AppData\Local\Temp\VMBuilds\new_LMDZ\STM32_genericSTM32F103C\Debug\core.a(adc_f1.c.o)
adc_enable_single_swstart                         C:\Users\20131\AppData\Local\Temp\VMBuilds\new_LMDZ\STM32_genericSTM32F103C\Debug\core.a(adc_f1.c.o)
                                                  C:\Users\20131\AppData\Local\Temp\VMBCore\arduino16x\7c3dd42e408ebb1ce4dae06851a5a8aa\variant\boards.cpp.o
adc_foreach                                       C:\Users\20131\AppData\Local\Temp\VMBuilds\new_LMDZ\STM32_genericSTM32F103C\Debug\core.a(adc_f1.c.o)
                                                  C:\Users\20131\AppData\Local\Temp\VMBCore\arduino16x\7c3dd42e408ebb1ce4dae06851a5a8aa\variant\boards.cpp.o
adc_init                                          C:\Users\20131\AppData\Local\Temp\VMBuilds\new_LMDZ\STM32_genericSTM32F103C\Debug\core.a(adc.c.o)
                                                  C:\Users\20131\AppData\Local\Temp\VMBuilds\new_LMDZ\STM32_genericSTM32F103C\Debug\core.a(adc_f1.c.o)
adc_read                                          C:\Users\20131\AppData\Local\Temp\VMBuilds\new_LMDZ\STM32_genericSTM32F103C\Debug\core.a(adc.c.o)
                                                  C:\Users\20131\AppData\Local\Temp\VMBuilds\new_LMDZ\STM32_genericSTM32F103C\Debug\core.a(wirish_analog.cpp.o)
adc_set_extsel                                    C:\Users\20131\AppData\Local\Temp\VMBuilds\new_LMDZ\STM32_genericSTM32F103C\Debug\core.a(adc.c.o)
                                                  C:\Users\20131\AppData\Local\Temp\VMBuilds\new_LMDZ\STM32_genericSTM32F103C\Debug\core.a(adc_f1.c.o)
adc_set_prescaler                                 C:\Users\20131\AppData\Local\Temp\VMBuilds\new_LMDZ\STM32_genericSTM32F103C\Debug\core.a(adc_f1.c.o)
                                                  C:\Users\20131\AppData\Local\Temp\VMBCore\arduino16x\7c3dd42e408ebb1ce4dae06851a5a8aa\variant\boards.cpp.o
adc_set_sample_rate                               C:\Users\20131\AppData\Local\Temp\VMBuilds\new_LMDZ\STM32_genericSTM32F103C\Debug\core.a(adc.c.o)
                                                  C:\Users\20131\AppData\Local\Temp\VMBCore\arduino16x\7c3dd42e408ebb1ce4dae06851a5a8aa\variant\boards.cpp.o
afio_init                                         C:\Users\20131\AppData\Local\Temp\VMBuilds\new_LMDZ\STM32_genericSTM32F103C\Debug\core.a(gpio_f1.c.o)
                                                  C:\Users\20131\AppData\Local\Temp\VMBCore\arduino16x\7c3dd42e408ebb1ce4dae06851a5a8aa\variant\boards_setup.cpp.o
afio_remap                                        C:\Users\20131\AppData\Local\Temp\VMBuilds\new_LMDZ\STM32_genericSTM32F103C\Debug\core.a(gpio_f1.c.o)
                                                  C:\Users\20131\AppData\Local\Temp\VMBuilds\new_LMDZ\STM32_genericSTM32F103C\Debug\core.a(i2c.c.o)
                                                  C:\Users\20131\AppData\Local\Temp\VMBuilds\new_LMDZ\STM32_genericSTM32F103C\Debug\core.a(i2c_f1.c.o)
analogRead(unsigned char)                         C:\Users\20131\AppData\Local\Temp\VMBuilds\new_LMDZ\STM32_genericSTM32F103C\Debug\core.a(wirish_analog.cpp.o)
                                                  getValue.cpp.o
atexit                                            c:/users/20131/appdata/local/arduino15/packages/arduino/tools/arm-none-eabi-gcc/4.8.3-2014q1/bin/../lib/gcc/arm-none-eabi/4.8.3/../../../../arm-none-eabi/lib/armv7-m\libc.a(lib_a-atexit.o)
                                                  c:/users/20131/appdata/local/arduino15/packages/arduino/tools/arm-none-eabi-gcc/4.8.3-2014q1/bin/../lib/gcc/arm-none-eabi/4.8.3/../../../../arm-none-eabi/lib/armv7-m\libc.a(lib_a-__call_atexit.o)
                                                  c:/users/20131/appdata/local/arduino15/packages/arduino/tools/arm-none-eabi-gcc/4.8.3-2014q1/bin/../lib/gcc/arm-none-eabi/4.8.3/../../../../arm-none-eabi/lib/armv7-m/crt0.o
aveRage(sensor*, sensor*)                         aveRage.cpp.o
                                                  new_LMDZ.cpp.o
aveRage_step(sensor*)                             aveRage.cpp.o
boardADCPins                                      C:\Users\20131\AppData\Local\Temp\VMBCore\arduino16x\7c3dd42e408ebb1ce4dae06851a5a8aa\variant\board.cpp.o
boardInit()                                       C:\Users\20131\AppData\Local\Temp\VMBCore\arduino16x\7c3dd42e408ebb1ce4dae06851a5a8aa\variant\board.cpp.o
boardPWMPins                                      C:\Users\20131\AppData\Local\Temp\VMBCore\arduino16x\7c3dd42e408ebb1ce4dae06851a5a8aa\variant\board.cpp.o
boardUsedPins                                     C:\Users\20131\AppData\Local\Temp\VMBCore\arduino16x\7c3dd42e408ebb1ce4dae06851a5a8aa\variant\board.cpp.o
                                                  C:\Users\20131\AppData\Local\Temp\VMBCore\arduino16x\7c3dd42e408ebb1ce4dae06851a5a8aa\variant\boards.cpp.o
boardUsesPin(unsigned char)                       C:\Users\20131\AppData\Local\Temp\VMBCore\arduino16x\7c3dd42e408ebb1ce4dae06851a5a8aa\variant\boards.cpp.o
cgets                                             C:\Users\20131\AppData\Local\Temp\VMBCore\arduino16x\7c3dd42e408ebb1ce4dae06851a5a8aa\variant\syscalls.c.o
cmp(sensor*)                                      cmpValues.cpp.o
cmpValues(sensor*, sensor*, int*)                 cmpValues.cpp.o
delay(unsigned long)                              C:\Users\20131\AppData\Local\Temp\VMBuilds\new_LMDZ\STM32_genericSTM32F103C\Debug\core.a(wirish_time.cpp.o)
                                                  getValue.cpp.o
delayMicroseconds(unsigned long)                  C:\Users\20131\AppData\Local\Temp\VMBuilds\new_LMDZ\STM32_genericSTM32F103C\Debug\core.a(wirish_time.cpp.o)
dma_attach_interrupt                              C:\Users\20131\AppData\Local\Temp\VMBuilds\new_LMDZ\STM32_genericSTM32F103C\Debug\core.a(dma_f1.c.o)
dma_detach_interrupt                              C:\Users\20131\AppData\Local\Temp\VMBuilds\new_LMDZ\STM32_genericSTM32F103C\Debug\core.a(dma_f1.c.o)
dma_disable                                       C:\Users\20131\AppData\Local\Temp\VMBuilds\new_LMDZ\STM32_genericSTM32F103C\Debug\core.a(dma_f1.c.o)
dma_enable                                        C:\Users\20131\AppData\Local\Temp\VMBuilds\new_LMDZ\STM32_genericSTM32F103C\Debug\core.a(dma_f1.c.o)
dma_get_irq_cause                                 C:\Users\20131\AppData\Local\Temp\VMBuilds\new_LMDZ\STM32_genericSTM32F103C\Debug\core.a(dma_f1.c.o)
dma_init                                          C:\Users\20131\AppData\Local\Temp\VMBuilds\new_LMDZ\STM32_genericSTM32F103C\Debug\core.a(dma.c.o)
dma_set_mem_addr                                  C:\Users\20131\AppData\Local\Temp\VMBuilds\new_LMDZ\STM32_genericSTM32F103C\Debug\core.a(dma_f1.c.o)
dma_set_num_transfers                             C:\Users\20131\AppData\Local\Temp\VMBuilds\new_LMDZ\STM32_genericSTM32F103C\Debug\core.a(dma_f1.c.o)
dma_set_per_addr                                  C:\Users\20131\AppData\Local\Temp\VMBuilds\new_LMDZ\STM32_genericSTM32F103C\Debug\core.a(dma_f1.c.o)
dma_set_priority                                  C:\Users\20131\AppData\Local\Temp\VMBuilds\new_LMDZ\STM32_genericSTM32F103C\Debug\core.a(dma_f1.c.o)
dma_setup_transfer                                C:\Users\20131\AppData\Local\Temp\VMBuilds\new_LMDZ\STM32_genericSTM32F103C\Debug\core.a(dma_f1.c.o)
dma_tube_cfg                                      C:\Users\20131\AppData\Local\Temp\VMBuilds\new_LMDZ\STM32_genericSTM32F103C\Debug\core.a(dma_f1.c.o)
draw(int*)                                        draw.cpp.o
exit                                              c:/users/20131/appdata/local/arduino15/packages/arduino/tools/arm-none-eabi-gcc/4.8.3-2014q1/bin/../lib/gcc/arm-none-eabi/4.8.3/../../../../arm-none-eabi/lib/armv7-m\libc.a(lib_a-exit.o)
                                                  C:\Users\20131\AppData\Local\Temp\VMBCore\arduino16x\7c3dd42e408ebb1ce4dae06851a5a8aa\variant\start_c.c.o
                                                  c:/users/20131/appdata/local/arduino15/packages/arduino/tools/arm-none-eabi-gcc/4.8.3-2014q1/bin/../lib/gcc/arm-none-eabi/4.8.3/../../../../arm-none-eabi/lib/armv7-m/crt0.o
exti_attach_callback                              C:\Users\20131\AppData\Local\Temp\VMBuilds\new_LMDZ\STM32_genericSTM32F103C\Debug\core.a(exti.c.o)
exti_attach_interrupt                             C:\Users\20131\AppData\Local\Temp\VMBuilds\new_LMDZ\STM32_genericSTM32F103C\Debug\core.a(exti.c.o)
exti_detach_interrupt                             C:\Users\20131\AppData\Local\Temp\VMBuilds\new_LMDZ\STM32_genericSTM32F103C\Debug\core.a(exti.c.o)
exti_do_select                                    C:\Users\20131\AppData\Local\Temp\VMBuilds\new_LMDZ\STM32_genericSTM32F103C\Debug\core.a(exti.c.o)
                                                  C:\Users\20131\AppData\Local\Temp\VMBuilds\new_LMDZ\STM32_genericSTM32F103C\Debug\core.a(exti_f1.c.o)
exti_select                                       C:\Users\20131\AppData\Local\Temp\VMBuilds\new_LMDZ\STM32_genericSTM32F103C\Debug\core.a(exti_f1.c.o)
                                                  C:\Users\20131\AppData\Local\Temp\VMBuilds\new_LMDZ\STM32_genericSTM32F103C\Debug\core.a(exti.c.o)
fgets                                             C:\Users\20131\AppData\Local\Temp\VMBCore\arduino16x\7c3dd42e408ebb1ce4dae06851a5a8aa\variant\syscalls.c.o
flash_set_latency                                 C:\Users\20131\AppData\Local\Temp\VMBuilds\new_LMDZ\STM32_genericSTM32F103C\Debug\core.a(flash.c.o)
                                                  C:\Users\20131\AppData\Local\Temp\VMBCore\arduino16x\7c3dd42e408ebb1ce4dae06851a5a8aa\variant\boards.cpp.o
free                                              c:/users/20131/appdata/local/arduino15/packages/arduino/tools/arm-none-eabi-gcc/4.8.3-2014q1/bin/../lib/gcc/arm-none-eabi/4.8.3/../../../../arm-none-eabi/lib/armv7-m\libc.a(lib_a-__call_atexit.o)
getValue(sensor*, sensor*)                        getValue.cpp.o
                                                  new_LMDZ.cpp.o
get_direction                                     C:\Users\20131\AppData\Local\Temp\VMBuilds\new_LMDZ\STM32_genericSTM32F103C\Debug\core.a(timer.c.o)
getch                                             C:\Users\20131\AppData\Local\Temp\VMBCore\arduino16x\7c3dd42e408ebb1ce4dae06851a5a8aa\variant\syscalls.c.o
gpio_get_mode                                     C:\Users\20131\AppData\Local\Temp\VMBuilds\new_LMDZ\STM32_genericSTM32F103C\Debug\core.a(gpio_f1.c.o)
gpio_init                                         C:\Users\20131\AppData\Local\Temp\VMBuilds\new_LMDZ\STM32_genericSTM32F103C\Debug\core.a(gpio.c.o)
                                                  C:\Users\20131\AppData\Local\Temp\VMBuilds\new_LMDZ\STM32_genericSTM32F103C\Debug\core.a(gpio_f1.c.o)
gpio_init_all                                     C:\Users\20131\AppData\Local\Temp\VMBuilds\new_LMDZ\STM32_genericSTM32F103C\Debug\core.a(gpio_f1.c.o)
                                                  C:\Users\20131\AppData\Local\Temp\VMBCore\arduino16x\7c3dd42e408ebb1ce4dae06851a5a8aa\variant\boards_setup.cpp.o
gpio_set_mode                                     C:\Users\20131\AppData\Local\Temp\VMBuilds\new_LMDZ\STM32_genericSTM32F103C\Debug\core.a(gpio_f1.c.o)
                                                  C:\Users\20131\AppData\Local\Temp\VMBuilds\new_LMDZ\STM32_genericSTM32F103C\Debug\core.a(wirish_digital_f1.cpp.o)
                                                  C:\Users\20131\AppData\Local\Temp\VMBuilds\new_LMDZ\STM32_genericSTM32F103C\Debug\core.a(usb_cdcacm.c.o)
                                                  C:\Users\20131\AppData\Local\Temp\VMBuilds\new_LMDZ\STM32_genericSTM32F103C\Debug\core.a(util.c.o)
                                                  C:\Users\20131\AppData\Local\Temp\VMBuilds\new_LMDZ\STM32_genericSTM32F103C\Debug\core.a(usart_f1.c.o)
                                                  C:\Users\20131\AppData\Local\Temp\VMBuilds\new_LMDZ\STM32_genericSTM32F103C\Debug\core.a(i2c_f1.c.o)
                                                  C:\Users\20131\AppData\Local\Temp\VMBuilds\new_LMDZ\STM32_genericSTM32F103C\Debug\core.a(adc_f1.c.o)
gpioa                                             C:\Users\20131\AppData\Local\Temp\VMBuilds\new_LMDZ\STM32_genericSTM32F103C\Debug\core.a(gpio_f1.c.o)
                                                  C:\Users\20131\AppData\Local\Temp\VMBCore\arduino16x\7c3dd42e408ebb1ce4dae06851a5a8aa\variant\board.cpp.o
gpiob                                             C:\Users\20131\AppData\Local\Temp\VMBuilds\new_LMDZ\STM32_genericSTM32F103C\Debug\core.a(gpio_f1.c.o)
                                                  C:\Users\20131\AppData\Local\Temp\VMBuilds\new_LMDZ\STM32_genericSTM32F103C\Debug\core.a(i2c_f1.c.o)
                                                  C:\Users\20131\AppData\Local\Temp\VMBCore\arduino16x\7c3dd42e408ebb1ce4dae06851a5a8aa\variant\board.cpp.o
gpioc                                             C:\Users\20131\AppData\Local\Temp\VMBuilds\new_LMDZ\STM32_genericSTM32F103C\Debug\core.a(gpio_f1.c.o)
                                                  C:\Users\20131\AppData\Local\Temp\VMBCore\arduino16x\7c3dd42e408ebb1ce4dae06851a5a8aa\variant\board.cpp.o
gpiod                                             C:\Users\20131\AppData\Local\Temp\VMBuilds\new_LMDZ\STM32_genericSTM32F103C\Debug\core.a(gpio_f1.c.o)
hardware_init_hook                                c:/users/20131/appdata/local/arduino15/packages/arduino/tools/arm-none-eabi-gcc/4.8.3-2014q1/bin/../lib/gcc/arm-none-eabi/4.8.3/../../../../arm-none-eabi/lib/armv7-m/crt0.o
i2c_bus_reset                                     C:\Users\20131\AppData\Local\Temp\VMBuilds\new_LMDZ\STM32_genericSTM32F103C\Debug\core.a(i2c.c.o)
i2c_config_gpios                                  C:\Users\20131\AppData\Local\Temp\VMBuilds\new_LMDZ\STM32_genericSTM32F103C\Debug\core.a(i2c_f1.c.o)
                                                  C:\Users\20131\AppData\Local\Temp\VMBuilds\new_LMDZ\STM32_genericSTM32F103C\Debug\core.a(i2c.c.o)
i2c_init                                          C:\Users\20131\AppData\Local\Temp\VMBuilds\new_LMDZ\STM32_genericSTM32F103C\Debug\core.a(i2c.c.o)
i2c_master_enable                                 C:\Users\20131\AppData\Local\Temp\VMBuilds\new_LMDZ\STM32_genericSTM32F103C\Debug\core.a(i2c.c.o)
i2c_master_release_bus                            C:\Users\20131\AppData\Local\Temp\VMBuilds\new_LMDZ\STM32_genericSTM32F103C\Debug\core.a(i2c_f1.c.o)
                                                  C:\Users\20131\AppData\Local\Temp\VMBuilds\new_LMDZ\STM32_genericSTM32F103C\Debug\core.a(i2c.c.o)
i2c_master_xfer                                   C:\Users\20131\AppData\Local\Temp\VMBuilds\new_LMDZ\STM32_genericSTM32F103C\Debug\core.a(i2c.c.o)
init()                                            C:\Users\20131\AppData\Local\Temp\VMBCore\arduino16x\7c3dd42e408ebb1ce4dae06851a5a8aa\variant\boards.cpp.o
                                                  C:\Users\20131\AppData\Local\Temp\VMBuilds\new_LMDZ\STM32_genericSTM32F103C\Debug\core.a(main.cpp.o)
input_capture_mode                                C:\Users\20131\AppData\Local\Temp\VMBuilds\new_LMDZ\STM32_genericSTM32F103C\Debug\core.a(timer.c.o)
isatty                                            C:\Users\20131\AppData\Local\Temp\VMBCore\arduino16x\7c3dd42e408ebb1ce4dae06851a5a8aa\variant\syscalls.c.o
length                                            new_LMDZ.cpp.o
                                                  valuesPrint.cpp.o
                                                  rearrange.cpp.o
                                                  quartileDeviation.cpp.o
                                                  getValue.cpp.o
                                                  cmpValues.cpp.o
                                                  aveRage.cpp.o
loop()                                            new_LMDZ.cpp.o
                                                  C:\Users\20131\AppData\Local\Temp\VMBuilds\new_LMDZ\STM32_genericSTM32F103C\Debug\core.a(main.cpp.o)
main                                              C:\Users\20131\AppData\Local\Temp\VMBuilds\new_LMDZ\STM32_genericSTM32F103C\Debug\core.a(main.cpp.o)
                                                  C:\Users\20131\AppData\Local\Temp\VMBCore\arduino16x\7c3dd42e408ebb1ce4dae06851a5a8aa\variant\start_c.c.o
                                                  c:/users/20131/appdata/local/arduino15/packages/arduino/tools/arm-none-eabi-gcc/4.8.3-2014q1/bin/../lib/gcc/arm-none-eabi/4.8.3/../../../../arm-none-eabi/lib/armv7-m/crt0.o
malloc                                            c:/users/20131/appdata/local/arduino15/packages/arduino/tools/arm-none-eabi-gcc/4.8.3-2014q1/bin/../lib/gcc/arm-none-eabi/4.8.3/../../../../arm-none-eabi/lib/armv7-m\libc.a(lib_a-__atexit.o)
memset                                            c:/users/20131/appdata/local/arduino15/packages/arduino/tools/arm-none-eabi-gcc/4.8.3-2014q1/bin/../lib/gcc/arm-none-eabi/4.8.3/../../../../arm-none-eabi/lib/armv7-m\libc.a(lib_a-memset.o)
                                                  quartileDeviation.cpp.o
                                                  c:/users/20131/appdata/local/arduino15/packages/arduino/tools/arm-none-eabi-gcc/4.8.3-2014q1/bin/../lib/gcc/arm-none-eabi/4.8.3/../../../../arm-none-eabi/lib/armv7-m/crt0.o
nvic_init                                         C:\Users\20131\AppData\Local\Temp\VMBuilds\new_LMDZ\STM32_genericSTM32F103C\Debug\core.a(nvic.c.o)
                                                  C:\Users\20131\AppData\Local\Temp\VMBCore\arduino16x\7c3dd42e408ebb1ce4dae06851a5a8aa\variant\boards.cpp.o
nvic_irq_set_priority                             C:\Users\20131\AppData\Local\Temp\VMBuilds\new_LMDZ\STM32_genericSTM32F103C\Debug\core.a(nvic.c.o)
                                                  C:\Users\20131\AppData\Local\Temp\VMBuilds\new_LMDZ\STM32_genericSTM32F103C\Debug\core.a(i2c_f1.c.o)
nvic_set_vector_table                             C:\Users\20131\AppData\Local\Temp\VMBuilds\new_LMDZ\STM32_genericSTM32F103C\Debug\core.a(nvic.c.o)
nvic_sys_reset                                    C:\Users\20131\AppData\Local\Temp\VMBuilds\new_LMDZ\STM32_genericSTM32F103C\Debug\core.a(nvic.c.o)
pInformation                                      C:\Users\20131\AppData\Local\Temp\VMBuilds\new_LMDZ\STM32_genericSTM32F103C\Debug\core.a(usb_init.c.o)
                                                  C:\Users\20131\AppData\Local\Temp\VMBuilds\new_LMDZ\STM32_genericSTM32F103C\Debug\core.a(usb_core.c.o)
                                                  C:\Users\20131\AppData\Local\Temp\VMBuilds\new_LMDZ\STM32_genericSTM32F103C\Debug\core.a(usb_cdcacm.c.o)
                                                  C:\Users\20131\AppData\Local\Temp\VMBuilds\new_LMDZ\STM32_genericSTM32F103C\Debug\core.a(usb.c.o)
pProperty                                         C:\Users\20131\AppData\Local\Temp\VMBuilds\new_LMDZ\STM32_genericSTM32F103C\Debug\core.a(usb_init.c.o)
                                                  C:\Users\20131\AppData\Local\Temp\VMBuilds\new_LMDZ\STM32_genericSTM32F103C\Debug\core.a(usb_core.c.o)
                                                  C:\Users\20131\AppData\Local\Temp\VMBuilds\new_LMDZ\STM32_genericSTM32F103C\Debug\core.a(usb_cdcacm.c.o)
                                                  C:\Users\20131\AppData\Local\Temp\VMBuilds\new_LMDZ\STM32_genericSTM32F103C\Debug\core.a(usb.c.o)
pUser_Standard_Requests                           C:\Users\20131\AppData\Local\Temp\VMBuilds\new_LMDZ\STM32_genericSTM32F103C\Debug\core.a(usb_init.c.o)
                                                  C:\Users\20131\AppData\Local\Temp\VMBuilds\new_LMDZ\STM32_genericSTM32F103C\Debug\core.a(usb_core.c.o)
                                                  C:\Users\20131\AppData\Local\Temp\VMBuilds\new_LMDZ\STM32_genericSTM32F103C\Debug\core.a(usb.c.o)
pinMode(unsigned char, WiringPinMode)             C:\Users\20131\AppData\Local\Temp\VMBuilds\new_LMDZ\STM32_genericSTM32F103C\Debug\core.a(wirish_digital_f1.cpp.o)
                                                  new_LMDZ.cpp.o
position1(sensor*, QD*)                           quartileDeviation.cpp.o
position2(sensor*, QD*)                           quartileDeviation.cpp.o
premain()                                         C:\Users\20131\AppData\Local\Temp\VMBuilds\new_LMDZ\STM32_genericSTM32F103C\Debug\core.a(main.cpp.o)
putch                                             C:\Users\20131\AppData\Local\Temp\VMBCore\arduino16x\7c3dd42e408ebb1ce4dae06851a5a8aa\variant\syscalls.c.o
quartileDeviation(sensor*, sensor*)               quartileDeviation.cpp.o
                                                  new_LMDZ.cpp.o
rcc_clk_disable                                   C:\Users\20131\AppData\Local\Temp\VMBuilds\new_LMDZ\STM32_genericSTM32F103C\Debug\core.a(rcc_f1.c.o)
                                                  C:\Users\20131\AppData\Local\Temp\VMBCore\arduino16x\7c3dd42e408ebb1ce4dae06851a5a8aa\variant\boards_setup.cpp.o
rcc_clk_enable                                    C:\Users\20131\AppData\Local\Temp\VMBuilds\new_LMDZ\STM32_genericSTM32F103C\Debug\core.a(rcc_f1.c.o)
                                                  C:\Users\20131\AppData\Local\Temp\VMBuilds\new_LMDZ\STM32_genericSTM32F103C\Debug\core.a(usart.c.o)
                                                  C:\Users\20131\AppData\Local\Temp\VMBuilds\new_LMDZ\STM32_genericSTM32F103C\Debug\core.a(i2c.c.o)
                                                  C:\Users\20131\AppData\Local\Temp\VMBuilds\new_LMDZ\STM32_genericSTM32F103C\Debug\core.a(gpio.c.o)
                                                  C:\Users\20131\AppData\Local\Temp\VMBuilds\new_LMDZ\STM32_genericSTM32F103C\Debug\core.a(dma.c.o)
                                                  C:\Users\20131\AppData\Local\Temp\VMBuilds\new_LMDZ\STM32_genericSTM32F103C\Debug\core.a(usb.c.o)
                                                  C:\Users\20131\AppData\Local\Temp\VMBuilds\new_LMDZ\STM32_genericSTM32F103C\Debug\core.a(timer.c.o)
                                                  C:\Users\20131\AppData\Local\Temp\VMBuilds\new_LMDZ\STM32_genericSTM32F103C\Debug\core.a(gpio_f1.c.o)
                                                  C:\Users\20131\AppData\Local\Temp\VMBuilds\new_LMDZ\STM32_genericSTM32F103C\Debug\core.a(adc.c.o)
rcc_clk_init                                      C:\Users\20131\AppData\Local\Temp\VMBuilds\new_LMDZ\STM32_genericSTM32F103C\Debug\core.a(rcc_f1.c.o)
rcc_configure_pll                                 C:\Users\20131\AppData\Local\Temp\VMBuilds\new_LMDZ\STM32_genericSTM32F103C\Debug\core.a(rcc_f1.c.o)
                                                  C:\Users\20131\AppData\Local\Temp\VMBCore\arduino16x\7c3dd42e408ebb1ce4dae06851a5a8aa\variant\boards.cpp.o
rcc_dev_clk                                       C:\Users\20131\AppData\Local\Temp\VMBuilds\new_LMDZ\STM32_genericSTM32F103C\Debug\core.a(rcc.c.o)
                                                  C:\Users\20131\AppData\Local\Temp\VMBuilds\new_LMDZ\STM32_genericSTM32F103C\Debug\core.a(usart_private.c.o)
                                                  C:\Users\20131\AppData\Local\Temp\VMBuilds\new_LMDZ\STM32_genericSTM32F103C\Debug\core.a(rcc_f1.c.o)
rcc_dev_table                                     C:\Users\20131\AppData\Local\Temp\VMBuilds\new_LMDZ\STM32_genericSTM32F103C\Debug\core.a(rcc_f1.c.o)
                                                  C:\Users\20131\AppData\Local\Temp\VMBuilds\new_LMDZ\STM32_genericSTM32F103C\Debug\core.a(rcc.c.o)
rcc_is_clk_on                                     C:\Users\20131\AppData\Local\Temp\VMBuilds\new_LMDZ\STM32_genericSTM32F103C\Debug\core.a(rcc.c.o)
                                                  C:\Users\20131\AppData\Local\Temp\VMBuilds\new_LMDZ\STM32_genericSTM32F103C\Debug\core.a(rcc_f1.c.o)
rcc_is_clk_ready                                  C:\Users\20131\AppData\Local\Temp\VMBuilds\new_LMDZ\STM32_genericSTM32F103C\Debug\core.a(rcc.c.o)
                                                  C:\Users\20131\AppData\Local\Temp\VMBuilds\new_LMDZ\STM32_genericSTM32F103C\Debug\core.a(rcc_f1.c.o)
                                                  C:\Users\20131\AppData\Local\Temp\VMBCore\arduino16x\7c3dd42e408ebb1ce4dae06851a5a8aa\variant\boards.cpp.o
rcc_reset_dev                                     C:\Users\20131\AppData\Local\Temp\VMBuilds\new_LMDZ\STM32_genericSTM32F103C\Debug\core.a(rcc_f1.c.o)
                                                  C:\Users\20131\AppData\Local\Temp\VMBuilds\new_LMDZ\STM32_genericSTM32F103C\Debug\core.a(i2c.c.o)
                                                  C:\Users\20131\AppData\Local\Temp\VMBuilds\new_LMDZ\STM32_genericSTM32F103C\Debug\core.a(gpio.c.o)
                                                  C:\Users\20131\AppData\Local\Temp\VMBuilds\new_LMDZ\STM32_genericSTM32F103C\Debug\core.a(timer.c.o)
                                                  C:\Users\20131\AppData\Local\Temp\VMBuilds\new_LMDZ\STM32_genericSTM32F103C\Debug\core.a(gpio_f1.c.o)
                                                  C:\Users\20131\AppData\Local\Temp\VMBuilds\new_LMDZ\STM32_genericSTM32F103C\Debug\core.a(adc.c.o)
rcc_set_prescaler                                 C:\Users\20131\AppData\Local\Temp\VMBuilds\new_LMDZ\STM32_genericSTM32F103C\Debug\core.a(rcc_f1.c.o)
                                                  C:\Users\20131\AppData\Local\Temp\VMBuilds\new_LMDZ\STM32_genericSTM32F103C\Debug\core.a(adc_f1.c.o)
                                                  C:\Users\20131\AppData\Local\Temp\VMBCore\arduino16x\7c3dd42e408ebb1ce4dae06851a5a8aa\variant\boards_setup.cpp.o
rcc_switch_sysclk                                 C:\Users\20131\AppData\Local\Temp\VMBuilds\new_LMDZ\STM32_genericSTM32F103C\Debug\core.a(rcc.c.o)
                                                  C:\Users\20131\AppData\Local\Temp\VMBuilds\new_LMDZ\STM32_genericSTM32F103C\Debug\core.a(rcc_f1.c.o)
                                                  C:\Users\20131\AppData\Local\Temp\VMBCore\arduino16x\7c3dd42e408ebb1ce4dae06851a5a8aa\variant\boards.cpp.o
rcc_turn_off_clk                                  C:\Users\20131\AppData\Local\Temp\VMBuilds\new_LMDZ\STM32_genericSTM32F103C\Debug\core.a(rcc.c.o)
                                                  C:\Users\20131\AppData\Local\Temp\VMBCore\arduino16x\7c3dd42e408ebb1ce4dae06851a5a8aa\variant\boards.cpp.o
rcc_turn_on_clk                                   C:\Users\20131\AppData\Local\Temp\VMBuilds\new_LMDZ\STM32_genericSTM32F103C\Debug\core.a(rcc.c.o)
                                                  C:\Users\20131\AppData\Local\Temp\VMBuilds\new_LMDZ\STM32_genericSTM32F103C\Debug\core.a(rcc_f1.c.o)
                                                  C:\Users\20131\AppData\Local\Temp\VMBCore\arduino16x\7c3dd42e408ebb1ce4dae06851a5a8aa\variant\boards.cpp.o
rearrange(sensor*, sensor*)                       rearrange.cpp.o
                                                  new_LMDZ.cpp.o
rearrange_step(sensor*)                           rearrange.cpp.o
sensor1                                           new_LMDZ.cpp.o
sensor2                                           new_LMDZ.cpp.o
setup()                                           new_LMDZ.cpp.o
                                                  C:\Users\20131\AppData\Local\Temp\VMBuilds\new_LMDZ\STM32_genericSTM32F103C\Debug\core.a(main.cpp.o)
software_init_hook                                c:/users/20131/appdata/local/arduino15/packages/arduino/tools/arm-none-eabi-gcc/4.8.3-2014q1/bin/../lib/gcc/arm-none-eabi/4.8.3/../../../../arm-none-eabi/lib/armv7-m/crt0.o
start_c                                           C:\Users\20131\AppData\Local\Temp\VMBCore\arduino16x\7c3dd42e408ebb1ce4dae06851a5a8aa\variant\start_c.c.o
                                                  C:\Users\20131\AppData\Local\Temp\VMBCore\arduino16x\7c3dd42e408ebb1ce4dae06851a5a8aa\variant\start.S.o
step(int*, int)                                   draw.cpp.o
stepPrint_a(sensor*)                              valuesPrint.cpp.o
stepPrint_b(sensor*)                              valuesPrint.cpp.o
strlen                                            c:/users/20131/appdata/local/arduino15/packages/arduino/tools/arm-none-eabi-gcc/4.8.3-2014q1/bin/../lib/gcc/arm-none-eabi/4.8.3/../../../../arm-none-eabi/lib/armv7-m\libc.a(lib_a-strlen.o)
                                                  C:\Users\20131\AppData\Local\Temp\VMBuilds\new_LMDZ\STM32_genericSTM32F103C\Debug\core.a(Print.cpp.o)
systick_attach_callback                           C:\Users\20131\AppData\Local\Temp\VMBuilds\new_LMDZ\STM32_genericSTM32F103C\Debug\core.a(systick.c.o)
systick_disable                                   C:\Users\20131\AppData\Local\Temp\VMBuilds\new_LMDZ\STM32_genericSTM32F103C\Debug\core.a(systick.c.o)
systick_enable                                    C:\Users\20131\AppData\Local\Temp\VMBuilds\new_LMDZ\STM32_genericSTM32F103C\Debug\core.a(systick.c.o)
systick_init                                      C:\Users\20131\AppData\Local\Temp\VMBuilds\new_LMDZ\STM32_genericSTM32F103C\Debug\core.a(systick.c.o)
                                                  C:\Users\20131\AppData\Local\Temp\VMBCore\arduino16x\7c3dd42e408ebb1ce4dae06851a5a8aa\variant\boards.cpp.o
systick_uptime_millis                             C:\Users\20131\AppData\Local\Temp\VMBuilds\new_LMDZ\STM32_genericSTM32F103C\Debug\core.a(i2c.c.o)
                                                  C:\Users\20131\AppData\Local\Temp\VMBuilds\new_LMDZ\STM32_genericSTM32F103C\Debug\core.a(wirish_time.cpp.o)
                                                  C:\Users\20131\AppData\Local\Temp\VMBuilds\new_LMDZ\STM32_genericSTM32F103C\Debug\core.a(systick.c.o)
throb                                             C:\Users\20131\AppData\Local\Temp\VMBuilds\new_LMDZ\STM32_genericSTM32F103C\Debug\core.a(util.c.o)
timer1                                            C:\Users\20131\AppData\Local\Temp\VMBuilds\new_LMDZ\STM32_genericSTM32F103C\Debug\core.a(timer.c.o)
                                                  C:\Users\20131\AppData\Local\Temp\VMBCore\arduino16x\7c3dd42e408ebb1ce4dae06851a5a8aa\variant\board.cpp.o
timer2                                            C:\Users\20131\AppData\Local\Temp\VMBuilds\new_LMDZ\STM32_genericSTM32F103C\Debug\core.a(timer.c.o)
                                                  C:\Users\20131\AppData\Local\Temp\VMBCore\arduino16x\7c3dd42e408ebb1ce4dae06851a5a8aa\variant\board.cpp.o
timer3                                            C:\Users\20131\AppData\Local\Temp\VMBuilds\new_LMDZ\STM32_genericSTM32F103C\Debug\core.a(timer.c.o)
                                                  C:\Users\20131\AppData\Local\Temp\VMBCore\arduino16x\7c3dd42e408ebb1ce4dae06851a5a8aa\variant\board.cpp.o
timer4                                            C:\Users\20131\AppData\Local\Temp\VMBuilds\new_LMDZ\STM32_genericSTM32F103C\Debug\core.a(timer.c.o)
                                                  C:\Users\20131\AppData\Local\Temp\VMBCore\arduino16x\7c3dd42e408ebb1ce4dae06851a5a8aa\variant\board.cpp.o
timer_attach_interrupt                            C:\Users\20131\AppData\Local\Temp\VMBuilds\new_LMDZ\STM32_genericSTM32F103C\Debug\core.a(timer.c.o)
timer_detach_interrupt                            C:\Users\20131\AppData\Local\Temp\VMBuilds\new_LMDZ\STM32_genericSTM32F103C\Debug\core.a(timer.c.o)
timer_disable                                     C:\Users\20131\AppData\Local\Temp\VMBuilds\new_LMDZ\STM32_genericSTM32F103C\Debug\core.a(timer.c.o)
timer_foreach                                     C:\Users\20131\AppData\Local\Temp\VMBuilds\new_LMDZ\STM32_genericSTM32F103C\Debug\core.a(timer.c.o)
                                                  C:\Users\20131\AppData\Local\Temp\VMBCore\arduino16x\7c3dd42e408ebb1ce4dae06851a5a8aa\variant\boards.cpp.o
timer_has_cc_channel                              C:\Users\20131\AppData\Local\Temp\VMBuilds\new_LMDZ\STM32_genericSTM32F103C\Debug\core.a(timer.c.o)
                                                  C:\Users\20131\AppData\Local\Temp\VMBCore\arduino16x\7c3dd42e408ebb1ce4dae06851a5a8aa\variant\boards.cpp.o
timer_init                                        C:\Users\20131\AppData\Local\Temp\VMBuilds\new_LMDZ\STM32_genericSTM32F103C\Debug\core.a(timer.c.o)
                                                  C:\Users\20131\AppData\Local\Temp\VMBCore\arduino16x\7c3dd42e408ebb1ce4dae06851a5a8aa\variant\boards.cpp.o
timer_set_mode                                    C:\Users\20131\AppData\Local\Temp\VMBuilds\new_LMDZ\STM32_genericSTM32F103C\Debug\core.a(timer.c.o)
                                                  C:\Users\20131\AppData\Local\Temp\VMBuilds\new_LMDZ\STM32_genericSTM32F103C\Debug\core.a(wirish_digital_f1.cpp.o)
                                                  C:\Users\20131\AppData\Local\Temp\VMBuilds\new_LMDZ\STM32_genericSTM32F103C\Debug\core.a(HardwareSerial.cpp.o)
usart_config_gpios_async                          C:\Users\20131\AppData\Local\Temp\VMBuilds\new_LMDZ\STM32_genericSTM32F103C\Debug\core.a(usart_f1.c.o)
                                                  C:\Users\20131\AppData\Local\Temp\VMBuilds\new_LMDZ\STM32_genericSTM32F103C\Debug\core.a(HardwareSerial.cpp.o)
usart_disable                                     C:\Users\20131\AppData\Local\Temp\VMBuilds\new_LMDZ\STM32_genericSTM32F103C\Debug\core.a(usart.c.o)
                                                  C:\Users\20131\AppData\Local\Temp\VMBuilds\new_LMDZ\STM32_genericSTM32F103C\Debug\core.a(HardwareSerial.cpp.o)
usart_enable                                      C:\Users\20131\AppData\Local\Temp\VMBuilds\new_LMDZ\STM32_genericSTM32F103C\Debug\core.a(usart.c.o)
                                                  C:\Users\20131\AppData\Local\Temp\VMBuilds\new_LMDZ\STM32_genericSTM32F103C\Debug\core.a(HardwareSerial.cpp.o)
usart_foreach                                     C:\Users\20131\AppData\Local\Temp\VMBuilds\new_LMDZ\STM32_genericSTM32F103C\Debug\core.a(usart_f1.c.o)
usart_init                                        C:\Users\20131\AppData\Local\Temp\VMBuilds\new_LMDZ\STM32_genericSTM32F103C\Debug\core.a(usart.c.o)
                                                  C:\Users\20131\AppData\Local\Temp\VMBuilds\new_LMDZ\STM32_genericSTM32F103C\Debug\core.a(HardwareSerial.cpp.o)
usart_putudec                                     C:\Users\20131\AppData\Local\Temp\VMBuilds\new_LMDZ\STM32_genericSTM32F103C\Debug\core.a(usart.c.o)
                                                  C:\Users\20131\AppData\Local\Temp\VMBuilds\new_LMDZ\STM32_genericSTM32F103C\Debug\core.a(util.c.o)
usart_rx                                          C:\Users\20131\AppData\Local\Temp\VMBuilds\new_LMDZ\STM32_genericSTM32F103C\Debug\core.a(usart.c.o)
usart_set_baud_rate                               C:\Users\20131\AppData\Local\Temp\VMBuilds\new_LMDZ\STM32_genericSTM32F103C\Debug\core.a(usart_f1.c.o)
                                                  C:\Users\20131\AppData\Local\Temp\VMBuilds\new_LMDZ\STM32_genericSTM32F103C\Debug\core.a(HardwareSerial.cpp.o)
usart_tx                                          C:\Users\20131\AppData\Local\Temp\VMBuilds\new_LMDZ\STM32_genericSTM32F103C\Debug\core.a(usart.c.o)
                                                  C:\Users\20131\AppData\Local\Temp\VMBuilds\new_LMDZ\STM32_genericSTM32F103C\Debug\core.a(HardwareSerial.cpp.o)
                                                  C:\Users\20131\AppData\Local\Temp\VMBuilds\new_LMDZ\STM32_genericSTM32F103C\Debug\core.a(util.c.o)
usb_cdcacm_data_available                         C:\Users\20131\AppData\Local\Temp\VMBuilds\new_LMDZ\STM32_genericSTM32F103C\Debug\core.a(usb_cdcacm.c.o)
usb_cdcacm_disable                                C:\Users\20131\AppData\Local\Temp\VMBuilds\new_LMDZ\STM32_genericSTM32F103C\Debug\core.a(usb_cdcacm.c.o)
usb_cdcacm_enable                                 C:\Users\20131\AppData\Local\Temp\VMBuilds\new_LMDZ\STM32_genericSTM32F103C\Debug\core.a(usb_cdcacm.c.o)
usb_cdcacm_get_baud                               C:\Users\20131\AppData\Local\Temp\VMBuilds\new_LMDZ\STM32_genericSTM32F103C\Debug\core.a(usb_cdcacm.c.o)
usb_cdcacm_get_dtr                                C:\Users\20131\AppData\Local\Temp\VMBuilds\new_LMDZ\STM32_genericSTM32F103C\Debug\core.a(usb_cdcacm.c.o)
usb_cdcacm_get_line_coding                        C:\Users\20131\AppData\Local\Temp\VMBuilds\new_LMDZ\STM32_genericSTM32F103C\Debug\core.a(usb_cdcacm.c.o)
usb_cdcacm_get_n_data_bits                        C:\Users\20131\AppData\Local\Temp\VMBuilds\new_LMDZ\STM32_genericSTM32F103C\Debug\core.a(usb_cdcacm.c.o)
usb_cdcacm_get_parity                             C:\Users\20131\AppData\Local\Temp\VMBuilds\new_LMDZ\STM32_genericSTM32F103C\Debug\core.a(usb_cdcacm.c.o)
usb_cdcacm_get_pending                            C:\Users\20131\AppData\Local\Temp\VMBuilds\new_LMDZ\STM32_genericSTM32F103C\Debug\core.a(usb_cdcacm.c.o)
usb_cdcacm_get_rts                                C:\Users\20131\AppData\Local\Temp\VMBuilds\new_LMDZ\STM32_genericSTM32F103C\Debug\core.a(usb_cdcacm.c.o)
usb_cdcacm_get_stop_bits                          C:\Users\20131\AppData\Local\Temp\VMBuilds\new_LMDZ\STM32_genericSTM32F103C\Debug\core.a(usb_cdcacm.c.o)
usb_cdcacm_is_transmitting                        C:\Users\20131\AppData\Local\Temp\VMBuilds\new_LMDZ\STM32_genericSTM32F103C\Debug\core.a(usb_cdcacm.c.o)
usb_cdcacm_peek                                   C:\Users\20131\AppData\Local\Temp\VMBuilds\new_LMDZ\STM32_genericSTM32F103C\Debug\core.a(usb_cdcacm.c.o)
usb_cdcacm_peek_char                              C:\Users\20131\AppData\Local\Temp\VMBuilds\new_LMDZ\STM32_genericSTM32F103C\Debug\core.a(usb_cdcacm.c.o)
usb_cdcacm_peek_ex                                C:\Users\20131\AppData\Local\Temp\VMBuilds\new_LMDZ\STM32_genericSTM32F103C\Debug\core.a(usb_cdcacm.c.o)
usb_cdcacm_putc                                   C:\Users\20131\AppData\Local\Temp\VMBuilds\new_LMDZ\STM32_genericSTM32F103C\Debug\core.a(usb_cdcacm.c.o)
usb_cdcacm_rx                                     C:\Users\20131\AppData\Local\Temp\VMBuilds\new_LMDZ\STM32_genericSTM32F103C\Debug\core.a(usb_cdcacm.c.o)
usb_cdcacm_set_hooks                              C:\Users\20131\AppData\Local\Temp\VMBuilds\new_LMDZ\STM32_genericSTM32F103C\Debug\core.a(usb_cdcacm.c.o)
usb_cdcacm_tx                                     C:\Users\20131\AppData\Local\Temp\VMBuilds\new_LMDZ\STM32_genericSTM32F103C\Debug\core.a(usb_cdcacm.c.o)
usb_cdcacm_tx_available                           C:\Users\20131\AppData\Local\Temp\VMBuilds\new_LMDZ\STM32_genericSTM32F103C\Debug\core.a(usb_cdcacm.c.o)
usb_init_usblib                                   C:\Users\20131\AppData\Local\Temp\VMBuilds\new_LMDZ\STM32_genericSTM32F103C\Debug\core.a(usb.c.o)
                                                  C:\Users\20131\AppData\Local\Temp\VMBuilds\new_LMDZ\STM32_genericSTM32F103C\Debug\core.a(usb_cdcacm.c.o)
usb_power_off                                     C:\Users\20131\AppData\Local\Temp\VMBuilds\new_LMDZ\STM32_genericSTM32F103C\Debug\core.a(usb.c.o)
                                                  C:\Users\20131\AppData\Local\Temp\VMBuilds\new_LMDZ\STM32_genericSTM32F103C\Debug\core.a(usb_cdcacm.c.o)
usb_set_ep_rx_count                               C:\Users\20131\AppData\Local\Temp\VMBuilds\new_LMDZ\STM32_genericSTM32F103C\Debug\core.a(usb_reg_map.c.o)
                                                  C:\Users\20131\AppData\Local\Temp\VMBuilds\new_LMDZ\STM32_genericSTM32F103C\Debug\core.a(usb_cdcacm.c.o)
valuesPrint(sensor*, sensor*)                     valuesPrint.cpp.o
                                                  new_LMDZ.cpp.o
vtable for HardwareSerial                         C:\Users\20131\AppData\Local\Temp\VMBuilds\new_LMDZ\STM32_genericSTM32F103C\Debug\core.a(HardwareSerial.cpp.o)
vtable for Print                                  C:\Users\20131\AppData\Local\Temp\VMBuilds\new_LMDZ\STM32_genericSTM32F103C\Debug\core.a(Print.cpp.o)
vtable for Stream                                 C:\Users\20131\AppData\Local\Temp\VMBuilds\new_LMDZ\STM32_genericSTM32F103C\Debug\core.a(HardwareSerial.cpp.o)
wInterrupt_Mask                                   C:\Users\20131\AppData\Local\Temp\VMBuilds\new_LMDZ\STM32_genericSTM32F103C\Debug\core.a(usb_init.c.o)
wirish::priv::board_reset_pll()                   C:\Users\20131\AppData\Local\Temp\VMBCore\arduino16x\7c3dd42e408ebb1ce4dae06851a5a8aa\variant\boards_setup.cpp.o
                                                  C:\Users\20131\AppData\Local\Temp\VMBCore\arduino16x\7c3dd42e408ebb1ce4dae06851a5a8aa\variant\boards.cpp.o
wirish::priv::board_setup_clock_prescalers()      C:\Users\20131\AppData\Local\Temp\VMBCore\arduino16x\7c3dd42e408ebb1ce4dae06851a5a8aa\variant\boards_setup.cpp.o
                                                  C:\Users\20131\AppData\Local\Temp\VMBCore\arduino16x\7c3dd42e408ebb1ce4dae06851a5a8aa\variant\boards.cpp.o
wirish::priv::board_setup_gpio()                  C:\Users\20131\AppData\Local\Temp\VMBCore\arduino16x\7c3dd42e408ebb1ce4dae06851a5a8aa\variant\boards_setup.cpp.o
                                                  C:\Users\20131\AppData\Local\Temp\VMBCore\arduino16x\7c3dd42e408ebb1ce4dae06851a5a8aa\variant\boards.cpp.o
wirish::priv::board_setup_usb()                   C:\Users\20131\AppData\Local\Temp\VMBCore\arduino16x\7c3dd42e408ebb1ce4dae06851a5a8aa\variant\boards_setup.cpp.o
                                                  C:\Users\20131\AppData\Local\Temp\VMBCore\arduino16x\7c3dd42e408ebb1ce4dae06851a5a8aa\variant\boards.cpp.o
wirish::priv::series_init()                       C:\Users\20131\AppData\Local\Temp\VMBCore\arduino16x\7c3dd42e408ebb1ce4dae06851a5a8aa\variant\boards_setup.cpp.o
                                                  C:\Users\20131\AppData\Local\Temp\VMBCore\arduino16x\7c3dd42e408ebb1ce4dae06851a5a8aa\variant\boards.cpp.o
wirish::priv::w_adc_pre                           C:\Users\20131\AppData\Local\Temp\VMBCore\arduino16x\7c3dd42e408ebb1ce4dae06851a5a8aa\variant\boards_setup.cpp.o
                                                  C:\Users\20131\AppData\Local\Temp\VMBCore\arduino16x\7c3dd42e408ebb1ce4dae06851a5a8aa\variant\boards.cpp.o
wirish::priv::w_adc_smp                           C:\Users\20131\AppData\Local\Temp\VMBCore\arduino16x\7c3dd42e408ebb1ce4dae06851a5a8aa\variant\boards_setup.cpp.o
                                                  C:\Users\20131\AppData\Local\Temp\VMBCore\arduino16x\7c3dd42e408ebb1ce4dae06851a5a8aa\variant\boards.cpp.o
wirish::priv::w_board_pll_cfg                     C:\Users\20131\AppData\Local\Temp\VMBCore\arduino16x\7c3dd42e408ebb1ce4dae06851a5a8aa\variant\boards_setup.cpp.o
                                                  C:\Users\20131\AppData\Local\Temp\VMBCore\arduino16x\7c3dd42e408ebb1ce4dae06851a5a8aa\variant\boards.cpp.o
yield                                             C:\Users\20131\AppData\Local\Temp\VMBuilds\new_LMDZ\STM32_genericSTM32F103C\Debug\core.a(hooks.c.o)
                                                  C:\Users\20131\AppData\Local\Temp\VMBuilds\new_LMDZ\STM32_genericSTM32F103C\Debug\core.a(wirish_time.cpp.o)
